_NSAddImage
_NSAddLibrary
_NSAddLibraryWithSearching
_NSAddressOfSymbol
_NSCreateObjectFileImageFromFile
_NSCreateObjectFileImageFromMemory
_NSDestroyObjectFileImage
_NSGetSectionDataInObjectFileImage
_NSInstallLinkEditErrorHandlers
_NSIsSymbolDefinedInObjectFileImage
_NSIsSymbolNameDefined
_NSIsSymbolNameDefinedInImage
_NSIsSymbolNameDefinedWithHint
_NSLibraryNameForModule
_NSLinkEditError
_NSLinkModule
_NSLookupAndBindSymbol
_NSLookupAndBindSymbolWithHint
_NSLookupSymbolInImage
_NSLookupSymbolInModule
_NSModuleForSymbol
_NSNameOfModule
_NSNameOfSymbol
_NSSymbolDefinitionCountInObjectFileImage
_NSSymbolDefinitionNameInObjectFileImage
_NSSymbolReferenceCountInObjectFileImage
_NSSymbolReferenceNameInObjectFileImage
_NSUnLinkModule
_NSVersionOfLinkTimeLibrary
_NSVersionOfRunTimeLibrary
_NXArgc
_NXArgv
_OUTLINED_FUNCTION_0
_OUTLINED_FUNCTION_0
_OUTLINED_FUNCTION_0
_OUTLINED_FUNCTION_0
_OUTLINED_FUNCTION_0
_OUTLINED_FUNCTION_1
_OUTLINED_FUNCTION_1
_OUTLINED_FUNCTION_1
_OUTLINED_FUNCTION_1
_OUTLINED_FUNCTION_1
_OUTLINED_FUNCTION_2
_OUTLINED_FUNCTION_2
_OUTLINED_FUNCTION_2
_OUTLINED_FUNCTION_3
_OUTLINED_FUNCTION_3
_OUTLINED_FUNCTION_4
_OUTLINED_FUNCTION_4
_OUTLINED_FUNCTION_5
_OUTLINED_FUNCTION_6
__NSGetExecutablePath
__Z16withRemoteBufferjymbbPiU13block_pointerFvPvmE
__Z21_dyld_fast_stub_entryPvl
__Z21dyldGlobalLockAcquirev
__Z21dyldGlobalLockReleasev
__Z23setNotifyMonitoringDyldPFvbjPPK11mach_headerPPKcE
__Z27setNotifyMonitoringDyldMainPFvvE
__ZL11names_matchPKcS0_
__ZL12sGlobalMutex
__ZL14isLaunchdOwnedv
__ZL15dlopen_internalPKciPv
__ZL19dlerrorPerThreadKey
__ZL20findCacheInDirAndMapPKhPKc
__ZL20shared_cache_missingv
__ZL21sNotifyMonitoringDyld
__ZL24shared_cache_out_of_datev
__ZL25sNotifyMonitoringDyldMain
__ZL29getPerThreadBufferFor_dlerrorm
__ZL29hasPerThreadBufferFor_dlerrorv
__ZL30dlerrorPerThreadKeyInitialized
__ZL30gSharedCacheObjCConstantRanges
__ZL8gObjCOpt
__ZL8sHelpers
__ZN10LockHelperC1Ev
__ZN10LockHelperD1Ev
__ZN11Diagnostics10clearErrorEv
__ZN11Diagnostics5errorEPKcPc
__ZN11Diagnostics5errorEPKcz
__ZN11DiagnosticsC1Eb
__ZN11DiagnosticsD1Ev
__ZN12RemoteBuffer3mapEjymb
__ZN12RemoteBuffer6createEjymbb
__ZN12RemoteBufferC1Ejymbb
__ZN12RemoteBufferC1Ev
__ZN12RemoteBufferD1Ev
__ZN12RemoteBufferD2Ev
__ZN12RemoteBufferaSEOS_
__ZN12_GLOBAL__N_111ImageNumSet3addEj
__ZN22dyld_process_info_base12addDyldImageEjyyPKc
__ZN22dyld_process_info_base13makeSuspendedI23dyld_all_image_infos_32EENSt3__110unique_ptrIS_25dyld_process_info_deleterEEjRKT_Pi
__ZN22dyld_process_info_base13makeSuspendedI23dyld_all_image_infos_64EENSt3__110unique_ptrIS_25dyld_process_info_deleterEEjRKT_Pi
__ZN22dyld_process_info_base15copySegmentNameEPKc
__ZN22dyld_process_info_base23addInfoFromLoadCommandsEPK11mach_headerym
__ZN22dyld_process_info_base29addInfoFromRemoteLoadCommandsEjy
__ZN22dyld_process_info_base4makeI23dyld_all_image_infos_3218dyld_image_info_32EENSt3__110unique_ptrIS_25dyld_process_info_deleterEEjRKT_yPi
__ZN22dyld_process_info_base4makeI23dyld_all_image_infos_6418dyld_image_info_64EENSt3__110unique_ptrIS_25dyld_process_info_deleterEEjRKT_yPi
__ZN22dyld_process_info_base8addImageEjbyyPKc
__ZN22dyld_process_info_base8copyPathEjy
__ZN22dyld_process_info_base9addStringEPKcm
__ZN29dyld_process_info_notify_base11handleEventEv
__ZN29dyld_process_info_notify_base23replyToMonitoredProcessER17mach_msg_header_t
__ZN29dyld_process_info_notify_base7releaseEv
__ZN29dyld_process_info_notify_base8teardownEv
__ZN29dyld_process_info_notify_baseC2EP16dispatch_queue_sU13block_pointerFvbyyPKhPKcEU13block_pointerFvvEjPi
__ZN29dyld_process_info_notify_baseC2EP16dispatch_queue_sU13block_pointerFvbyyPKhPKcEU13block_pointerFvvEjPi.cold.1
__ZN29dyld_process_info_notify_baseD2Ev
__ZN5dyld310NSAddImageEPKcj
__ZN5dyld310gAllImagesE
__ZN5dyld310log_fixupsEPKcz
__ZN5dyld311GradedArchs12forCurrentOSEbb
__ZN5dyld311GradedArchs14arm64e_keysoffE
__ZN5dyld311GradedArchs17arm64e_keysoff_pbE
__ZN5dyld311GradedArchs6arm64eE
__ZN5dyld311GradedArchs9arm64e_pbE
__ZN5dyld311MachOLoaded25ChainedFixupPointerOnDisk6Arm64e11signPointerEyPvbth
__ZN5dyld311MachOLoaded25ChainedFixupPointerOnDisk6Arm64e11signPointerEyPvbth.cold.1
__ZN5dyld311MachOLoaded8trieWalkER11DiagnosticsPKhS4_PKc
__ZN5dyld311ScopedTimer10startTimerEv
__ZN5dyld311ScopedTimer8endTimerEv
__ZN5dyld312NSAddLibraryEPKc
__ZN5dyld312NSLinkModuleEP19__NSObjectFileImagePKcj
__ZN5dyld312_GLOBAL__N_120LinkEditContentChunk19compareByFileOffsetEPKvS3_
__ZN5dyld312log_segmentsEPKcz
__ZN5dyld313GrowableArrayI7OFIInfoLi4ELi1EE9push_backERKS1_
__ZN5dyld313GrowableArrayINS_9AllImages11DlopenCountELi4ELi4EE9push_backERKS2_
__ZN5dyld313GrowableArrayINSt3__14pairImmEELi4ELi4EE9push_backERKS3_
__ZN5dyld313GrowableArrayIPFvPK11mach_headerPKcbELi4ELi4EE9push_backERKS7_
__ZN5dyld313GrowableArrayIPFvPK11mach_headerlELi4ELi4EE9push_backERKS5_
__ZN5dyld313GrowableArrayIPFvjPPK11mach_headerPPKcELi2ELi2EE9push_backERKS9_
__ZN5dyld313GrowableArrayIPKNS_7closure10ImageArrayELi4ELi4EE9push_backERKS4_
__ZN5dyld313GrowableArrayImLi4ELi4EE9push_backERKm
__ZN5dyld313MachOAnalyzer14loadFromBufferER11DiagnosticsRKNS_7closure10FileSystemEPKcRKNS_11GradedArchsENS_8PlatformERNS3_14LoadedFileInfoE
__ZN5dyld313MachOAnalyzer4loadER11DiagnosticsRKNS_7closure10FileSystemEPKcRKNS_11GradedArchsENS_8PlatformEPc
__ZN5dyld313parseDlHandleEPvPPKNS_11MachOLoadedEPb
__ZN5dyld314NSNameOfModuleEP10__NSModule
__ZN5dyld314NSNameOfSymbolEP10__NSSymbol
__ZN5dyld314NSUnLinkModuleEP10__NSModulej
__ZN5dyld314dlsym_internalEPvPKcS0_
__ZN5dyld315NSLinkEditErrorEP16NSLinkEditErrorsPiPPKcS5_
__ZN5dyld315dlopen_internalEPKciPv
__ZN5dyld315setHaltFunctionEPFvPKcE
__ZN5dyld316MachOAnalyzerSet15PointerMetaDataC2EPKNS_11MachOLoaded25ChainedFixupPointerOnDiskEt
__ZN5dyld316_dyld_fork_childEv
__ZN5dyld316compatFuncLookupEPKcPPv
__ZN5dyld316log_initializersEPKcz
__ZN5dyld317NSAddressOfSymbolEP10__NSSymbol
__ZN5dyld317NSModuleForSymbolEP10__NSSymbol
__ZN5dyld317OverflowSafeArrayI13__cxa_range_tLm4294967295EE9push_backERKS1_
__ZN5dyld317OverflowSafeArrayI13__cxa_range_tLm4294967295EE9push_backERKS1_.cold.1
__ZN5dyld317OverflowSafeArrayI15relocation_infoLm4294967295EE9push_backERKS1_
__ZN5dyld317OverflowSafeArrayI15relocation_infoLm4294967295EE9push_backERKS1_.cold.1
__ZN5dyld317OverflowSafeArrayINS_13SegmentRanges12SegmentRangeELm4294967295EE9push_backERKS2_
__ZN5dyld317OverflowSafeArrayINS_13SegmentRanges12SegmentRangeELm4294967295EE9push_backERKS2_.cold.1
__ZN5dyld317OverflowSafeArrayINS_16MachOAnalyzerSet11FixupTargetELm4294967295EE21default_constuct_backEv
__ZN5dyld317OverflowSafeArrayINS_16MachOAnalyzerSet11FixupTargetELm4294967295EE21default_constuct_backEv.cold.1
__ZN5dyld317OverflowSafeArrayINS_6Loader7DOFInfoELm4294967295EE9push_backERKS2_
__ZN5dyld317OverflowSafeArrayINS_6Loader7DOFInfoELm4294967295EE9push_backERKS2_.cold.1
__ZN5dyld317OverflowSafeArrayINS_7closure13LaunchClosure11SkippedFileELm4294967295EE9push_backERKS3_
__ZN5dyld317OverflowSafeArrayINS_7closure13LaunchClosure11SkippedFileELm4294967295EE9push_backERKS3_.cold.1
__ZN5dyld317OverflowSafeArrayINS_7closure14ClosureBuilder18BuilderLoadedImageELm2048EE6growToEm
__ZN5dyld317OverflowSafeArrayINS_7closure14ClosureBuilder18BuilderLoadedImageELm2048EE6growToEm.cold.1
__ZN5dyld317OverflowSafeArrayINS_7closure14ClosureBuilder18BuilderLoadedImageELm2048EE6growToEm.cold.2
__ZN5dyld317OverflowSafeArrayINS_7closure14ClosureBuilder18BuilderLoadedImageELm2048EE9push_backERKS3_
__ZN5dyld317OverflowSafeArrayINS_7closure5Image11BindPatternELm4294967295EE9push_backERKS3_
__ZN5dyld317OverflowSafeArrayINS_7closure5Image11BindPatternELm4294967295EE9push_backERKS3_.cold.1
__ZN5dyld317OverflowSafeArrayINS_7closure5Image11LinkedImageELm65536EE6growToEm
__ZN5dyld317OverflowSafeArrayINS_7closure5Image11LinkedImageELm65536EE6growToEm.cold.1
__ZN5dyld317OverflowSafeArrayINS_7closure5Image11LinkedImageELm65536EE6growToEm.cold.2
__ZN5dyld317OverflowSafeArrayINS_7closure5Image11LinkedImageELm65536EE9push_backERKS3_
__ZN5dyld317OverflowSafeArrayINS_7closure5Image13RebasePatternELm4294967295EE9push_backERKS3_
__ZN5dyld317OverflowSafeArrayINS_7closure5Image13RebasePatternELm4294967295EE9push_backERKS3_.cold.1
__ZN5dyld317OverflowSafeArrayINS_7closure5Image16TextFixupPatternELm4294967295EE9push_backERKS3_
__ZN5dyld317OverflowSafeArrayINS_7closure5Image16TextFixupPatternELm4294967295EE9push_backERKS3_.cold.1
__ZN5dyld317OverflowSafeArrayINS_7closure5Image20ResolvedSymbolTargetELm4294967295EE9push_backERKS3_
__ZN5dyld317OverflowSafeArrayINS_7closure5Image20ResolvedSymbolTargetELm4294967295EE9push_backERKS3_.cold.1
__ZN5dyld317OverflowSafeArrayINS_7closure7Closure10PatchEntryELm4294967295EE9push_backERKS3_
__ZN5dyld317OverflowSafeArrayINS_7closure7Closure10PatchEntryELm4294967295EE9push_backERKS3_.cold.1
__ZN5dyld317OverflowSafeArrayIPKvLm4294967295EE9push_backERKS2_
__ZN5dyld317OverflowSafeArrayIPKvLm4294967295EE9push_backERKS2_.cold.1
__ZN5dyld317OverflowSafeArrayIZNS_6Loader8mapImageER11DiagnosticsRNS_11LoadedImageEbPbE13CDHashWrapperLm4294967295EE9push_backERKS7_
__ZN5dyld317OverflowSafeArrayIZNS_6Loader8mapImageER11DiagnosticsRNS_11LoadedImageEbPbE13CDHashWrapperLm4294967295EE9push_backERKS7_.cold.1
__ZN5dyld317OverflowSafeArrayIjLm4294967295EE9push_backERKj
__ZN5dyld317OverflowSafeArrayIjLm4294967295EE9push_backERKj.cold.1
__ZN5dyld317RecursiveAutoLock7_sMutexE
__ZN5dyld317_dyld_image_countEv
__ZN5dyld317_dyld_launch_modeEv
__ZN5dyld317dyld_need_closureEPKcS1_
__ZN5dyld317dyld_sdk_at_leastEPK11mach_header20dyld_build_version_t
__ZN5dyld317log_notificationsEPKcz
__ZN5dyld318entryVectorForDyldE
__ZN5dyld318setLoggingFromEnvsEPPKc
__ZN5dyld318setLoggingFunctionEPFvPKcPcE
__ZN5dyld319_dyld_atfork_parentEv
__ZN5dyld319dyld_minos_at_leastEPK11mach_header20dyld_build_version_t
__ZN5dyld320VersionSPIDispatcher15sdkFastPathDataE
__ZN5dyld320VersionSPIDispatcher17minosFastPathDataE
__ZN5dyld320VersionSPIDispatcher25findVersionSetEquuivalentEj
__ZN5dyld320VersionSPIDispatcher30dyld_program_sdk_at_least_fastE20dyld_build_version_t
__ZN5dyld320VersionSPIDispatcher30dyld_program_sdk_at_least_slowE20dyld_build_version_t
__ZN5dyld320VersionSPIDispatcher32dyld_program_minos_at_least_fastE20dyld_build_version_t
__ZN5dyld320VersionSPIDispatcher32dyld_program_minos_at_least_slowE20dyld_build_version_t
__ZN5dyld320VersionSPIDispatcher32dyld_program_sdk_at_least_activeE
__ZN5dyld320VersionSPIDispatcher34dyld_program_minos_at_least_activeE
__ZN5dyld320_NSGetExecutablePathEPcPj
__ZN5dyld320_dyld_atfork_prepareEv
__ZN5dyld320_dyld_get_image_nameEj
__ZN5dyld320_dyld_get_image_uuidEPK11mach_headerPh
__ZN5dyld320dyld_get_sdk_versionEPK11mach_header
__ZN5dyld321NSIsSymbolNameDefinedEPKc
__ZN5dyld321NSLookupAndBindSymbolEPKc
__ZN5dyld321NSLookupSymbolInImageEPK11mach_headerPKcj
__ZN5dyld321_dyld_get_image_slideEPK11mach_header
__ZN5dyld321_dyld_lookup_and_bindEPKcPPvPP10__NSModule
__ZN5dyld322NSLibraryNameForModuleEP10__NSModule
__ZN5dyld322NSLookupSymbolInModuleEP10__NSModulePKc
__ZN5dyld322_dyld_get_image_headerEj
__ZN5dyld322dyld_dynamic_interposeEPK11mach_headerPK20dyld_interpose_tuplem
__ZN5dyld322dyld_get_base_platformEj
__ZN5dyld323_dyld_get_objc_selectorEPKc
__ZN5dyld323dyld_get_image_versionsEPK11mach_headerU13block_pointerFvjjjE
__ZN5dyld323dyld_get_min_os_versionEPK11mach_header
__ZN5dyld323kdebug_trace_dyld_imageEjPKcPA16_Kh8fsobj_id4fsidPK11mach_header
__ZN5dyld324NSDestroyObjectFileImageEP19__NSObjectFileImage
__ZN5dyld324dyld_get_active_platformEv
__ZN5dyld325NSVersionOfRunTimeLibraryEPKc
__ZN5dyld325_dyld_for_each_objc_classEPKcU13block_pointerFvPvbPbE
__ZN5dyld325_dyld_get_all_image_infosEv
__ZN5dyld325_dyld_is_memory_immutableEPKvm
__ZN5dyld325dlopen_preflight_internalEPKc
__ZN5dyld325dyld_program_sdk_at_leastE20dyld_build_version_t
__ZN5dyld326NSVersionOfLinkTimeLibraryEPKc
__ZN5dyld326_dyld_find_unwind_sectionsEPvP20dyld_unwind_sections
__ZN5dyld326_dyld_images_for_addressesEjPPKvP22dyld_image_uuid_offset
__ZN5dyld326_dyld_missing_symbol_abortEv
__ZN5dyld326_dyld_objc_notify_registerEPFvjPKPKcPKPK11mach_headerEPFvS1_S6_ESC_
__ZN5dyld326dyld_is_simulator_platformEj
__ZN5dyld326dyld_process_is_restrictedEv
__ZN5dyld327_dyld_get_prog_image_headerEv
__ZN5dyld327_dyld_get_shared_cache_uuidEPh
__ZN5dyld327dyld_program_minos_at_leastE20dyld_build_version_t
__ZN5dyld327dyld_shared_cache_file_pathEv
__ZN5dyld328NSIsSymbolNameDefinedInImageEPK11mach_headerPKc
__ZN5dyld328_dyld_for_each_objc_protocolEPKcU13block_pointerFvPvbPbE
__ZN5dyld328_dyld_get_image_vmaddr_slideEj
__ZN5dyld328_dyld_get_shared_cache_rangeEPm
__ZN5dyld328_dyld_shared_cache_optimizedEv
__ZN5dyld329NSIsSymbolNameDefinedWithHintEPKcS1_
__ZN5dyld329NSLookupAndBindSymbolWithHintEPKcS1_
__ZN5dyld329_dyld_register_driverkit_mainEPFvvE
__ZN5dyld330NSInstallLinkEditErrorHandlersEPK23NSLinkEditErrorHandlers
__ZN5dyld330_dyld_image_containing_addressEPKv
__ZN5dyld330_dyld_register_for_image_loadsEPFvPK11mach_headerPKcbE
__ZN5dyld330dyld_shared_cache_iterate_textEPKhU13block_pointerFvPK33dyld_shared_cache_dylib_text_infoE
__ZN5dyld330kdebug_trace_dyld_duration_endEyjNS_6kt_argES0_S0_
__ZN5dyld331NSCreateObjectFileImageFromFileEPKcPP19__NSObjectFileImage
__ZN5dyld332kdebug_trace_dyld_duration_startEjNS_6kt_argES0_S0_
__ZN5dyld333NSCreateObjectFileImageFromMemoryEPKvmPP19__NSObjectFileImage
__ZN5dyld333NSGetSectionDataInObjectFileImageEP19__NSObjectFileImagePKcS3_Pm
__ZN5dyld333_dyld_register_func_for_add_imageEPFvPK11mach_headerlE
__ZN5dyld334NSIsSymbolDefinedInObjectFileImageEP19__NSObjectFileImagePKc
__ZN5dyld334dyld_image_path_containing_addressEPKv
__ZN5dyld335_dyld_register_for_bulk_image_loadsEPFvjPPK11mach_headerPPKcE
__ZN5dyld335_dyld_shared_cache_is_locally_builtEv
__ZN5dyld335dyld_shared_cache_find_iterate_textEPKhPPKcU13block_pointerFvPK33dyld_shared_cache_dylib_text_infoE
__ZN5dyld336_dyld_register_func_for_remove_imageEPFvPK11mach_headerlE
__ZN5dyld336dyld_image_header_containing_addressEPKv
__ZN5dyld338NSSymbolReferenceNameInObjectFileImageEP19__NSObjectFileImagejPb
__ZN5dyld339NSSymbolDefinitionNameInObjectFileImageEP19__NSObjectFileImagej
__ZN5dyld339NSSymbolReferenceCountInObjectFileImageEP19__NSObjectFileImage
__ZN5dyld339dyld_shared_cache_some_image_overriddenEv
__ZN5dyld340NSSymbolDefinitionCountInObjectFileImageEP19__NSObjectFileImage
__ZN5dyld341_dyld_get_image_header_containing_addressEPKv
__ZN5dyld342dyld_has_inserted_or_interposing_librariesEv
__ZN5dyld34haltEPKc
__ZN5dyld34openEPKcii
__ZN5dyld34statEPKcP4stat
__ZN5dyld35ArrayINS_11LoadedImageEE9push_backERKS1_
__ZN5dyld35ArrayINS_11LoadedImageEE9push_backERKS1_.cold.1
__ZN5dyld35ArrayINS_6Loader13ImageOverrideEE9push_backERKS2_
__ZN5dyld35ArrayINS_6Loader13ImageOverrideEE9push_backERKS2_.cold.1
__ZN5dyld35ArrayINS_6Reaper11ImageAndUseEE9push_backERKS2_
__ZN5dyld35ArrayINS_6Reaper11ImageAndUseEE9push_backERKS2_.cold.1
__ZN5dyld35ArrayINS_7closure7Closure10PatchEntryEE9push_backERKS3_
__ZN5dyld35ArrayINS_7closure7Closure10PatchEntryEE9push_backERKS3_.cold.1
__ZN5dyld35ArrayIjE9push_backERKj
__ZN5dyld35ArrayIjE9push_backERKj.cold.1
__ZN5dyld35sVarsE
__ZN5dyld36Loader10unmapImageERNS_11LoadedImageE
__ZN5dyld36Loader10unmapImageERNS_11LoadedImageE.cold.1
__ZN5dyld36Loader12registerDOFsERKNS_5ArrayINS0_7DOFInfoEEE
__ZN5dyld36Loader12registerDOFsERKNS_5ArrayINS0_7DOFInfoEEE.cold.1
__ZN5dyld36Loader13resolveTargetENS_7closure5Image20ResolvedSymbolTargetE
__ZN5dyld36Loader13resolveTargetENS_7closure5Image20ResolvedSymbolTargetE.cold.1
__ZN5dyld36Loader13resolveTargetENS_7closure5Image20ResolvedSymbolTargetE.cold.2
__ZN5dyld36Loader13resolveTargetENS_7closure5Image20ResolvedSymbolTargetE.cold.3
__ZN5dyld36Loader14unmapAllImagesEv
__ZN5dyld36Loader18applyFixupsToImageER11DiagnosticsRNS_11LoadedImageE
__ZN5dyld36Loader20mapAndFixupAllImagesER11DiagnosticsbbPbS3_
__ZN5dyld36Loader21completeAllDependentsER11DiagnosticsRb
__ZN5dyld36Loader21completeAllDependentsER11DiagnosticsRb.cold.1
__ZN5dyld36Loader23dtraceUserProbesEnabledEv
__ZN5dyld36Loader24vmAccountingSetSuspendedEbPFbPKczE
__ZN5dyld36Loader8addImageERKNS_11LoadedImageE
__ZN5dyld36Loader8mapImageER11DiagnosticsRNS_11LoadedImageEbPb
__ZN5dyld36LoaderC1ERKNS_5ArrayINS_11LoadedImageEEERS3_PKvRKNS1_IPKNS_7closure10ImageArrayEEEPKNS9_15ObjCSelectorOptERKNS1_INS9_5Image17ObjCSelectorImageEEERKNS_12RootsCheckerENS_8PlatformEPFbPKczESV_SV_SV_bPNS_15LaunchErrorInfoE
__ZN5dyld36Reaper14garbageCollectEv
__ZN5dyld36Reaper14runTerminatorsERKNS_11LoadedImageE
__ZN5dyld36Reaper18finalizeDeadImagesEv
__ZN5dyld36Reaper26markDependentOfInUseImagesEv
__ZN5dyld36Reaper32markDirectlyDlopenedImagesAsUsedEv
__ZN5dyld36dladdrEPKvP7dl_info
__ZN5dyld37FatFile9isFatFileEPKv
__ZN5dyld37closure10ImageArray9findImageENS_5ArrayIPKS1_EEj
__ZN5dyld37closure10ImageArray9findImageENS_5ArrayIPKS1_EEj.cold.1
__ZN5dyld37closure10TypedBytes7payloadEv
__ZN5dyld37closure11ImageWriter10setHasObjCEb
__ZN5dyld37closure11ImageWriter10setInvalidEv
__ZN5dyld37closure11ImageWriter10setIsDylibEb
__ZN5dyld37closure11ImageWriter11setBindInfoERKNS_5ArrayINS0_5Image11BindPatternEEE
__ZN5dyld37closure11ImageWriter11setFileInfoEyy
__ZN5dyld37closure11ImageWriter11setImageNumEj
__ZN5dyld37closure11ImageWriter11setIsBundleEb
__ZN5dyld37closure11ImageWriter12currentImageEv
__ZN5dyld37closure11ImageWriter13setDependentsERKNS_5ArrayINS0_5Image11LinkedImageEEE
__ZN5dyld37closure11ImageWriter13setDofOffsetsERKNS_5ArrayIjEE
__ZN5dyld37closure11ImageWriter13setDofOffsetsERKNS_5ArrayIjEE.cold.1
__ZN5dyld37closure11ImageWriter13setInitsOrderEPKjj
__ZN5dyld37closure11ImageWriter13setRebaseInfoERKNS_5ArrayINS0_5Image13RebasePatternEEE
__ZN5dyld37closure11ImageWriter14setHasWeakDefsEb
__ZN5dyld37closure11ImageWriter14setInDyldCacheEb
__ZN5dyld37closure11ImageWriter14setInitOffsetsEPKjj
__ZN5dyld37closure11ImageWriter14setMappingInfoEyy
__ZN5dyld37closure11ImageWriter14setNeverUnloadEb
__ZN5dyld37closure11ImageWriter14setTermOffsetsEPKjj
__ZN5dyld37closure11ImageWriter15setAsOverrideOfEj
__ZN5dyld37closure11ImageWriter15setDiskSegmentsEPKNS0_5Image11DiskSegmentEj
__ZN5dyld37closure11ImageWriter15setHasPlusLoadsEb
__ZN5dyld37closure11ImageWriter15setIsExecutableEb
__ZN5dyld37closure11ImageWriter15setUses16KPagesEb
__ZN5dyld37closure11ImageWriter16setChainedFixupsEyRKNS_5ArrayINS0_5Image20ResolvedSymbolTargetEEE
__ZN5dyld37closure11ImageWriter16setInitSectRangeEjj
__ZN5dyld37closure11ImageWriter17setCachedSegmentsEPKNS0_5Image16DyldCacheSegmentEj
__ZN5dyld37closure11ImageWriter17setTextRebaseInfoERKNS_5ArrayINS0_5Image16TextFixupPatternEEE
__ZN5dyld37closure11ImageWriter19setFixupsNotEncodedEv
__ZN5dyld37closure11ImageWriter19setOverridableDylibEb
__ZN5dyld37closure11ImageWriter20setRebasesNotEncodedEv
__ZN5dyld37closure11ImageWriter24setCodeSignatureLocationEjj
__ZN5dyld37closure11ImageWriter26setFairPlayEncryptionRangeEjj
__ZN5dyld37closure11ImageWriter7addPathEPKc
__ZN5dyld37closure11ImageWriter7setIs64Eb
__ZN5dyld37closure11ImageWriter7setUUIDEPKh
__ZN5dyld37closure11ImageWriter8finalizeEv
__ZN5dyld37closure11ImageWriter8getFlagsEv
__ZN5dyld37closure11ImageWriter9addCDHashEPKh
__ZN5dyld37closure13ClosureWriter14setTopImageNumEj
__ZN5dyld37closure13ClosureWriter15addCachePatchesERKNS_5ArrayINS0_7Closure10PatchEntryEEE
__ZN5dyld37closure13ClosureWriter16applyInterposingEPKNS0_13LaunchClosureE
__ZN5dyld37closure13LaunchClosure21buildClosureCachePathEPKcPS3_bPc
__ZN5dyld37closure13PathOverrides10setEnvVarsEPPKcPKNS_9MachOFileES3_
__ZN5dyld37closure13PathOverrides17setMainExecutableEPKNS_9MachOFileEPKc
__ZN5dyld37closure13PathOverrides17setMainExecutableEPKNS_9MachOFileEPKc.cold.1
__ZN5dyld37closure13PathOverrides17setMainExecutableEPKNS_9MachOFileEPKc.cold.2
__ZN5dyld37closure13PathOverrides18forEachInColonListEPKcS3_U13block_pointerFvS3_RbE
__ZN5dyld37closure13PathOverrides23setFallbackPathHandlingENS1_16FallbackPathModeE
__ZN5dyld37closure13PathOverrides9addEnvVarEPKcb
__ZN5dyld37closure13PathOverrides9addStringEPKc
__ZN5dyld37closure13PathOverrides9setStringERPKcS3_
__ZN5dyld37closure14ClosureBuilder10buildImageERNS0_11ImageWriterERNS1_18BuilderLoadedImageE
__ZN5dyld37closure14ClosureBuilder11addSegmentsERNS0_11ImageWriterEPKNS_13MachOAnalyzerE
__ZN5dyld37closure14ClosureBuilder12addFixupInfoERNS0_11ImageWriterERNS1_18BuilderLoadedImageE
__ZN5dyld37closure14ClosureBuilder13findDependentEPKNS_11MachOLoadedEj
__ZN5dyld37closure14ClosureBuilder13findDependentEPKNS_11MachOLoadedEj.cold.1
__ZN5dyld37closure14ClosureBuilder15findLoadedImageEPKNS_13MachOAnalyzerE
__ZN5dyld37closure14ClosureBuilder15findLoadedImageEPKNS_13MachOAnalyzerE.cold.1
__ZN5dyld37closure14ClosureBuilder15findLoadedImageEj
__ZN5dyld37closure14ClosureBuilder15findLoadedImageEj.cold.1
__ZN5dyld37closure14ClosureBuilder16computeInitOrderERNS0_11ImageWriterEj
__ZN5dyld37closure14ClosureBuilder16computeInitOrderERNS0_11ImageWriterEj.cold.1
__ZN5dyld37closure14ClosureBuilder16computeInitOrderERNS0_11ImageWriterEj.cold.2
__ZN5dyld37closure14ClosureBuilder16computeInitOrderERNS0_11ImageWriterEj.cold.3
__ZN5dyld37closure14ClosureBuilder17makeDlopenClosureEPKcPKNS0_13LaunchClosureERKNS_5ArrayINS_11LoadedImageEEEjbbbPj
__ZN5dyld37closure14ClosureBuilder17makeDlopenClosureEPKcPKNS0_13LaunchClosureERKNS_5ArrayINS_11LoadedImageEEEjbbbPj.cold.1
__ZN5dyld37closure14ClosureBuilder17makeDlopenClosureEPKcPKNS0_13LaunchClosureERKNS_5ArrayINS_11LoadedImageEEEjbbbPj.cold.10
__ZN5dyld37closure14ClosureBuilder17makeDlopenClosureEPKcPKNS0_13LaunchClosureERKNS_5ArrayINS_11LoadedImageEEEjbbbPj.cold.11
__ZN5dyld37closure14ClosureBuilder17makeDlopenClosureEPKcPKNS0_13LaunchClosureERKNS_5ArrayINS_11LoadedImageEEEjbbbPj.cold.12
__ZN5dyld37closure14ClosureBuilder17makeDlopenClosureEPKcPKNS0_13LaunchClosureERKNS_5ArrayINS_11LoadedImageEEEjbbbPj.cold.13
__ZN5dyld37closure14ClosureBuilder17makeDlopenClosureEPKcPKNS0_13LaunchClosureERKNS_5ArrayINS_11LoadedImageEEEjbbbPj.cold.2
__ZN5dyld37closure14ClosureBuilder17makeDlopenClosureEPKcPKNS0_13LaunchClosureERKNS_5ArrayINS_11LoadedImageEEEjbbbPj.cold.3
__ZN5dyld37closure14ClosureBuilder17makeDlopenClosureEPKcPKNS0_13LaunchClosureERKNS_5ArrayINS_11LoadedImageEEEjbbbPj.cold.4
__ZN5dyld37closure14ClosureBuilder17makeDlopenClosureEPKcPKNS0_13LaunchClosureERKNS_5ArrayINS_11LoadedImageEEEjbbbPj.cold.5
__ZN5dyld37closure14ClosureBuilder17makeDlopenClosureEPKcPKNS0_13LaunchClosureERKNS_5ArrayINS_11LoadedImageEEEjbbbPj.cold.6
__ZN5dyld37closure14ClosureBuilder17makeDlopenClosureEPKcPKNS0_13LaunchClosureERKNS_5ArrayINS_11LoadedImageEEEjbbbPj.cold.7
__ZN5dyld37closure14ClosureBuilder17makeDlopenClosureEPKcPKNS0_13LaunchClosureERKNS_5ArrayINS_11LoadedImageEEEjbbbPj.cold.8
__ZN5dyld37closure14ClosureBuilder17makeDlopenClosureEPKcPKNS0_13LaunchClosureERKNS_5ArrayINS_11LoadedImageEEEjbbbPj.cold.9
__ZN5dyld37closure14ClosureBuilder18expandAtLoaderPathEPKcbRKNS1_18BuilderLoadedImageEPc
__ZN5dyld37closure14ClosureBuilder19addChainedFixupInfoERNS0_11ImageWriterERNS1_18BuilderLoadedImageE
__ZN5dyld37closure14ClosureBuilder19sRetryDlopenClosureE
__ZN5dyld37closure14ClosureBuilder20addMustBeMissingPathEPKc
__ZN5dyld37closure14ClosureBuilder20addWeakDefCachePatchEjjRKNS_16MachOAnalyzerSet11FixupTargetE
__ZN5dyld37closure14ClosureBuilder22expandAtExecutablePathEPKcbbPc
__ZN5dyld37closure14ClosureBuilder22forEachResolvedPathVarEPKcRKNS1_16LoadedImageChainEbNS1_11LinkageTypeEU13block_pointerFvS3_RbE
__ZN5dyld37closure14ClosureBuilder23loadDanglingUpwardLinksEb
__ZN5dyld37closure14ClosureBuilder23recursiveLoadDependentsERNS1_16LoadedImageChainEb
__ZN5dyld37closure14ClosureBuilder23recursiveLoadDependentsERNS1_16LoadedImageChainEb.cold.1
__ZN5dyld37closure14ClosureBuilder26invalidateInitializerRootsEv
__ZN5dyld37closure14ClosureBuilder26invalidateInitializerRootsEv.cold.1
__ZN5dyld37closure14ClosureBuilder28depthFirstRecurseSetInitInfoEjPNS1_8InitInfoERjRb
__ZN5dyld37closure14ClosureBuilder28depthFirstRecurseSetInitInfoEjPNS1_8InitInfoERjRb.cold.1
__ZN5dyld37closure14ClosureBuilder9findImageEPKcRKNS1_16LoadedImageChainERPNS1_18BuilderLoadedImageENS1_11LinkageTypeEjb
__ZN5dyld37closure14ClosureBuilderC1EjRKNS0_10FileSystemERKNS_12RootsCheckerEPK15DyldSharedCachebRKNS_11GradedArchsERKNS0_13PathOverridesENS1_6AtPathEbPNS_15LaunchErrorInfoENS_8PlatformEU13block_pointerFvPKNS_11MachOLoadedEyNS_16MachOAnalyzerSet15PointerMetaDataERKNSO_11FixupTargetEE
__ZN5dyld37closure14ClosureBuilderC2EjRKNS0_10FileSystemERKNS_12RootsCheckerEPK15DyldSharedCachebRKNS_11GradedArchsERKNS0_13PathOverridesENS1_6AtPathEbPNS_15LaunchErrorInfoENS_8PlatformEU13block_pointerFvPKNS_11MachOLoadedEyNS_16MachOAnalyzerSet15PointerMetaDataERKNSO_11FixupTargetEE
__ZN5dyld37closure14ClosureBuilderD1Ev
__ZN5dyld37closure14ClosureBuilderD2Ev
__ZN5dyld37closure14gPathOverridesE
__ZN5dyld37closure16ImageArrayWriter11appendImageEPKNS0_5ImageE
__ZN5dyld37closure16ImageArrayWriter8finalizeEv
__ZN5dyld37closure16ImageArrayWriterC1Ejjb
__ZN5dyld37closure16ImageArrayWriterC2Ejjb
__ZN5dyld37closure18BindPatternBuilder3addEyNS0_5Image20ResolvedSymbolTargetEb
__ZN5dyld37closure18BindPatternBuilder3addEyNS0_5Image20ResolvedSymbolTargetEb.cold.1
__ZN5dyld37closure18BindPatternBuilder3addEyNS0_5Image20ResolvedSymbolTargetEb.cold.2
__ZN5dyld37closure18BindPatternBuilder3addEyNS0_5Image20ResolvedSymbolTargetEb.cold.3
__ZN5dyld37closure18BindPatternBuilder3addEyNS0_5Image20ResolvedSymbolTargetEb.cold.4
__ZN5dyld37closure18BindPatternBuilder3addEyNS0_5Image20ResolvedSymbolTargetEb.cold.5
__ZN5dyld37closure18BindPatternBuilder3addEyNS0_5Image20ResolvedSymbolTargetEb.cold.6
__ZN5dyld37closure19DlopenClosureWriter8finalizeEv
__ZN5dyld37closure19DlopenClosureWriterC1EPKNS0_10ImageArrayE
__ZN5dyld37closure19DlopenClosureWriterC2EPKNS0_10ImageArrayE
__ZN5dyld37closure20RebasePatternBuilder17_s_maxLeapPatternE
__ZN5dyld37closure20RebasePatternBuilder3addEy
__ZN5dyld37closure20RebasePatternBuilder3addEy.cold.1
__ZN5dyld37closure20RebasePatternBuilder3addEy.cold.2
__ZN5dyld37closure20RebasePatternBuilder3addEy.cold.3
__ZN5dyld37closure20RebasePatternBuilder3addEy.cold.4
__ZN5dyld37closure20RebasePatternBuilder3addEy.cold.5
__ZN5dyld37closure25ContainerTypedBytesWriter10deallocateEv
__ZN5dyld37closure25ContainerTypedBytesWriter16setContainerTypeENS0_10TypedBytes4TypeE
__ZN5dyld37closure25ContainerTypedBytesWriter16setContainerTypeENS0_10TypedBytes4TypeE.cold.1
__ZN5dyld37closure25ContainerTypedBytesWriter16setContainerTypeENS0_10TypedBytes4TypeE.cold.2
__ZN5dyld37closure25ContainerTypedBytesWriter17finalizeContainerEv
__ZN5dyld37closure25ContainerTypedBytesWriter6appendENS0_10TypedBytes4TypeEPKvj
__ZN5dyld37closure25ContainerTypedBytesWriter6appendENS0_10TypedBytes4TypeEPKvj.cold.1
__ZN5dyld37closure25ContainerTypedBytesWriter6appendENS0_10TypedBytes4TypeEPKvj.cold.2
__ZN5dyld37closure25ContainerTypedBytesWriter6appendENS0_10TypedBytes4TypeEPKvj.cold.3
__ZN5dyld37closure25ContainerTypedBytesWriter6appendENS0_10TypedBytes4TypeEPKvj.cold.4
__ZN5dyld37closure5Image12hashFunctionEPKc
__ZN5dyld37closure8PathPool10deallocateEPS1_
__ZN5dyld37closure8PathPool3addEPKc
__ZN5dyld37closure8PathPool8allocateEv
__ZN5dyld37dlcloseEPv
__ZN5dyld37dlerrorEv
__ZN5dyld38log_apisEPKcz
__ZN5dyld38log_dofsEPKcz
__ZN5dyld39AllImages11decRefCountEPK11mach_header
__ZN5dyld39AllImages11decRefCountEPK11mach_header.cold.1
__ZN5dyld39AllImages11decRefCountEPK11mach_header.cold.2
__ZN5dyld39AllImages11incRefCountEPK11mach_header
__ZN5dyld39AllImages12findImageNumEjRj
__ZN5dyld39AllImages12removeImagesERKNS_5ArrayINS_11LoadedImageEEE
__ZN5dyld39AllImages12removeImagesERKNS_5ArrayINS_11LoadedImageEEE.cold.1
__ZN5dyld39AllImages12removeImagesERKNS_5ArrayINS_11LoadedImageEEE.cold.2
__ZN5dyld39AllImages13findDependentEPKNS_11MachOLoadedEj
__ZN5dyld39AllImages13setLaunchModeEj
__ZN5dyld39AllImages14setProgramVarsEPNS0_11ProgramVarsEbb
__ZN5dyld39AllImages14swapImageStateEjRjNS_11LoadedImage5StateES3_
__ZN5dyld39AllImages15addLoadNotifierEPFvPK11mach_headerPKcbE
__ZN5dyld39AllImages15addLoadNotifierEPFvPK11mach_headerlE
__ZN5dyld39AllImages15recomputeBoundsEv
__ZN5dyld39AllImages15setRestrictionsEbb
__ZN5dyld39AllImages16getDriverkitMainEv
__ZN5dyld39AllImages16setDriverkitMainEPFvvE
__ZN5dyld39AllImages16setObjCNotifiersEPFvjPKPKcPKPK11mach_headerEPFvS2_S7_ESD_
__ZN5dyld39AllImages16setObjCNotifiersEPFvjPKPKcPKPK11mach_headerEPFvS2_S7_ESD_.cold.1
__ZN5dyld39AllImages16setObjCNotifiersEPFvjPKPKcPKPK11mach_headerEPFvS2_S7_ESD_.cold.2
__ZN5dyld39AllImages16setObjCNotifiersEPFvjPKPKcPKPK11mach_headerEPFvS2_S7_ESD_.cold.3
__ZN5dyld39AllImages16setObjCNotifiersEPFvjPKPKcPKPK11mach_headerEPFvS2_S7_ESD_.cold.4
__ZN5dyld39AllImages16setObjCNotifiersEPFvjPKPKcPKPK11mach_headerEPFvS2_S7_ESD_.cold.5
__ZN5dyld39AllImages16setObjCNotifiersEPFvjPKPKcPKPK11mach_headerEPFvS2_S7_ESD_.cold.6
__ZN5dyld39AllImages17addImmutableRangeEmm
__ZN5dyld39AllImages17addUnloadNotifierEPFvPK11mach_headerlE
__ZN5dyld39AllImages17notifyMonitorMainEv
__ZN5dyld39AllImages17notifyMonitorMainEv.cold.1
__ZN5dyld39AllImages17runImageCallbacksERKNS_5ArrayINS_11LoadedImageEEE
__ZN5dyld39AllImages17runImageCallbacksERKNS_5ArrayINS_11LoadedImageEEE.cold.1
__ZN5dyld39AllImages17runImageNotifiersERKNS_5ArrayINS_11LoadedImageEEE
__ZN5dyld39AllImages17runImageNotifiersERKNS_5ArrayINS_11LoadedImageEEE.cold.1
__ZN5dyld39AllImages17runImageNotifiersERKNS_5ArrayINS_11LoadedImageEEE.cold.2
__ZN5dyld39AllImages18applyInitialImagesEv
__ZN5dyld39AllImages18notifyMonitorLoadsERKNS_5ArrayINS_11LoadedImageEEE
__ZN5dyld39AllImages18notifyMonitorLoadsERKNS_5ArrayINS_11LoadedImageEEE.cold.1
__ZN5dyld39AllImages18takeLockBeforeForkEv
__ZN5dyld39AllImages19addBulkLoadNotifierEPFvjPPK11mach_headerPPKcE
__ZN5dyld39AllImages19addBulkLoadNotifierEPFvjPPK11mach_headerPPKcE.cold.1
__ZN5dyld39AllImages20addNSObjectFileImageERK7OFIInfo
__ZN5dyld39AllImages20forNSObjectFileImageEP19__NSObjectFileImageU13block_pointerFvR7OFIInfoE
__ZN5dyld39AllImages20garbageCollectImagesEv
__ZN5dyld39AllImages20garbageCollectImagesEv.cold.1
__ZN5dyld39AllImages20notifyMonitorUnloadsERKNS_5ArrayINS_11LoadedImageEEE
__ZN5dyld39AllImages20notifyMonitorUnloadsERKNS_5ArrayINS_11LoadedImageEEE.cold.1
__ZN5dyld39AllImages20resetLockInForkChildEv
__ZN5dyld39AllImages20setHasCacheOverridesEb
__ZN5dyld39AllImages21runStartupInitialzersEv
__ZN5dyld39AllImages23releaseLockInForkParentEv
__ZN5dyld39AllImages23removeNSObjectFileImageEP19__NSObjectFileImage
__ZN5dyld39AllImages23runAllStaticTerminatorsEv
__ZN5dyld39AllImages23runAllStaticTerminatorsEv.cold.1
__ZN5dyld39AllImages23runAllStaticTerminatorsEv.cold.2
__ZN5dyld39AllImages23runLibSystemInitializerERNS_11LoadedImageE
__ZN5dyld39AllImages24mirrorToOldAllImageInfosEv
__ZN5dyld39AllImages27applyInterposingToDyldCacheEPKNS_7closure7ClosureE
__ZN5dyld39AllImages29runAllStaticTerminatorsHelperEPv
__ZN5dyld39AllImages4initEPKNS_7closure13LaunchClosureEPK15DyldSharedCachePKcRKNS_5ArrayINS_11LoadedImageEEE
__ZN5dyld39AllImages4initEPKNS_7closure13LaunchClosureEPK15DyldSharedCachePKcRKNS_5ArrayINS_11LoadedImageEEE.cold.1
__ZN5dyld39AllImages4initEPKNS_7closure13LaunchClosureEPK15DyldSharedCachePKcRKNS_5ArrayINS_11LoadedImageEEE.cold.2
__ZN5dyld39AllImages6dlopenER11DiagnosticsPKcbbbbbPKvb
__ZN5dyld39AllImages9addImagesERKNS_5ArrayINS_11LoadedImageEEE
__ZN5dyld39AllImages9loadImageER11DiagnosticsPKcjPKNS_7closure13DlopenClosureEbbbbPKv
__ZN5dyld39MachOFile12_s_archInfosE
__ZN5dyld39MachOFile12platformNameENS_8PlatformE
__ZN5dyld39MachOFile12read_sleb128ER11DiagnosticsRPKhS4_
__ZN5dyld39MachOFile12read_uleb128ER11DiagnosticsRPKhS4_
__ZN5dyld39MachOFile16_s_platformInfosE
__ZN5dyld39MachOFile21packedVersionToStringEjPc
__ZN5dyld39log_loadsEPKcz
__ZN5dyld3L10dyld_funcsE
__ZN5dyld3L11relocSorterEPKvS1_
__ZN5dyld3L11sVersionMapE
__ZN5dyld3L12appendNumberERPcj
__ZN5dyld3L12appendNumberERPcj.cold.1
__ZN5dyld3L12dlsym_searchEPKcRKNS_11LoadedImageEbU13block_pointerFPKNS_11MachOLoadedES7_jEPb
__ZN5dyld3L12sLogFunctionE
__ZN5dyld3L12sTreatAsWeakE
__ZN5dyld3L12sVerboseAPIsE
__ZN5dyld3L12sVerboseDOFsE
__ZN5dyld3L12vlog_defaultEPKcPc
__ZN5dyld3L13entry_setVarsEPK11mach_headeriPPKcS5_S5_bb
__ZN5dyld3L13sHaltFunctionE
__ZN5dyld3L13trace_pair_idE
__ZN5dyld3L14flatFindSymbolEPKcPPvPPK11mach_header
__ZN5dyld3L14hashPrioritiesE
__ZN5dyld3L14sVerboseFixupsE
__ZN5dyld3L14setErrorStringEPKcz
__ZN5dyld3L15sVerboseLoadingE
__ZN5dyld3L16clearErrorStringEv
__ZN5dyld3L16sVerboseSegmentsE
__ZN5dyld3L17mapFromVersionSetE20dyld_build_version_t
__ZN5dyld3L17mapFromVersionSetE20dyld_build_version_t.cold.1
__ZN5dyld3L18sChildForkFunctionE
__ZN5dyld3L19entry_setLaunchModeEj
__ZN5dyld3L20entry_setLogFunctionEPFvPKcPcE
__ZN5dyld3L20entry_setProgramVarsEP11ProgramVars
__ZN5dyld3L20findCacheInDirAndMapEPKhPKcRm
__ZN5dyld3L20sVerboseInitializersE
__ZN5dyld3L21entry_setHaltFunctionEPFvPKcE
__ZN5dyld3L21entry_setRestrictionsEbbb
__ZN5dyld3L21sVerboseNotificationsE
__ZN5dyld3L22entry_getDriverkitMainEv
__ZN5dyld3L23deriveVersionFromDylibsEPK11mach_header
__ZN5dyld3L24entry_setOldAllImageInfoEP20dyld_all_image_infos
__ZN5dyld3L24hash_rank_watchOS_dylibsEPK16CS_CodeDirectory
__ZN5dyld3L25dlerror_perThreadKey_onceEPv
__ZN5dyld3L25entry_setInitialImageListEPKNS_7closure13LaunchClosureEPK15DyldSharedCachePKcRKNS_5ArrayINS_11LoadedImageEEERSA_
__ZN5dyld3L26entry_setChildForkFunctionEPFvvE
__ZN5dyld3L26entry_setHasCacheOverridesEb
__ZN5dyld3L28entry_runInitialzersBottomUpEPK11mach_header
__ZN5dyld3L29entry_setNotifyMonitoringDyldEPFvbjPPK11mach_headerPPKcE
__ZN5dyld3L29hashPriorities_watchOS_dylibsE
__ZN5dyld3L32dyld_get_image_versions_internalEPK11mach_headerU13block_pointerFvjjjE
__ZN5dyld3L33entry_setNotifyMonitoringDyldMainEPFvvE
__ZN5dyld3L9hash_rankEPK16CS_CodeDirectory
__ZN5dyld3L9nameMatchEPKcS1_
__ZNK11Diagnostics12errorMessageEv
__ZNK11Diagnostics13assertNoErrorEv
__ZNK11Diagnostics13assertNoErrorEv.cold.1
__ZNK11Diagnostics7noErrorEv
__ZNK11Diagnostics8hasErrorEv
__ZNK12RemoteBuffer15getKernelReturnEv
__ZNK12RemoteBuffer15getLocalAddressEv
__ZNK15DyldSharedCache10mappedSizeEv
__ZNK15DyldSharedCache11findClosureEPKc
__ZNK15DyldSharedCache12hasImagePathEPKcRj
__ZNK15DyldSharedCache13forEachRegionEU13block_pointerFvPKvyyjyE
__ZNK15DyldSharedCache16getCanonicalPathEPKc
__ZNK15DyldSharedCache17isOverridablePathEPKc
__ZNK15DyldSharedCache17otherOSImageArrayEv
__ZNK15DyldSharedCache17unslidLoadAddressEv
__ZNK15DyldSharedCache20findDlopenOtherImageEPKc
__ZNK15DyldSharedCache20getIndexedImageEntryEjRyS0_
__ZNK15DyldSharedCache20getObjCConstantRangeEv
__ZNK15DyldSharedCache20patchableExportCountEj
__ZNK15DyldSharedCache21hasNonOverridablePathEPKc
__ZNK15DyldSharedCache22cachedDylibsImageArrayEv
__ZNK15DyldSharedCache22forEachPatchableExportEjU13block_pointerFvjPKcE
__ZNK15DyldSharedCache23forEachImageTextSegmentEU13block_pointerFvyyPKhPKcRbE
__ZNK15DyldSharedCache24findMachHeaderImageIndexEPK11mach_headerRj
__ZNK15DyldSharedCache27forEachPatchableUseOfExportEjjU13block_pointerFv29dyld_cache_patchable_locationE
__ZNK15DyldSharedCache7getUUIDEPh
__ZNK15DyldSharedCache7inCacheEPKvmRb
__ZNK15DyldSharedCache7objcOptEv
__ZNK22dyld_process_info_base14forEachSegmentEyU13block_pointerFvyyPKcE
__ZNK22dyld_process_info_base15forEachAotImageEU13block_pointerFbyyyPhmE
__ZNK5dyld311GradedArchs5gradeEjjb
__ZNK5dyld311MachOLoaded11segmentNameEj
__ZNK5dyld311MachOLoaded13hasExportTrieERjS1_
__ZNK5dyld311MachOLoaded17findClosestSymbolEyPPKcPy
__ZNK5dyld311MachOLoaded17hasExportedSymbolEPKcU13block_pointerFPKS0_S4_jEPPvPb
__ZNK5dyld311MachOLoaded18findExportedSymbolER11DiagnosticsPKcbRNS0_11FoundSymbolEU13block_pointerFPKS0_S8_jE
__ZNK5dyld311MachOLoaded18findSectionContentEPKcS2_Ry
__ZNK5dyld311MachOLoaded18getLinkEditContentERKNS0_10LayoutInfoEj
__ZNK5dyld311MachOLoaded19dependentDylibCountEv
__ZNK5dyld311MachOLoaded19forEachGlobalSymbolER11DiagnosticsU13block_pointerFvPKcyhhtRbE
__ZNK5dyld311MachOLoaded19getLinkEditPointersER11DiagnosticsRNS0_12LinkEditInfoE
__ZNK5dyld311MachOLoaded21fixupAllChainedFixupsER11DiagnosticsPK28dyld_chained_starts_in_imagemNS_5ArrayIPKvEEU13block_pointerFvPvSA_E
__ZNK5dyld311MachOLoaded23forEachFixupInAllChainsER11DiagnosticsPK28dyld_chained_starts_in_imagebU13block_pointerFvPNS0_25ChainedFixupPointerOnDiskEPK30dyld_chained_starts_in_segmentRbE
__ZNK5dyld311MachOLoaded23forEachFixupInAllChainsER11DiagnosticstjPKjU13block_pointerFvPNS0_25ChainedFixupPointerOnDiskERbE
__ZNK5dyld311MachOLoaded23getLinkEditLoadCommandsER11DiagnosticsRNS0_12LinkEditInfoE
__ZNK5dyld311MachOLoaded24forEachCodeDirectoryBlobEPKvmU13block_pointerFvS2_E
__ZNK5dyld311MachOLoaded25ChainedFixupPointerOnDisk6Arm64e11signPointerEPvy
__ZNK5dyld311MachOLoaded25ChainedFixupPointerOnDisk6Arm64e11signPointerEPvy.cold.1
__ZNK5dyld311MachOLoaded25ChainedFixupPointerOnDisk6Arm64e12unpackTargetEv
__ZNK5dyld311MachOLoaded25ChainedFixupPointerOnDisk6Arm64e12unpackTargetEv.cold.1
__ZNK5dyld311MachOLoaded25ChainedFixupPointerOnDisk6Arm64e12unpackTargetEv.cold.2
__ZNK5dyld311MachOLoaded25ChainedFixupPointerOnDisk6Arm64e18signExtendedAddendEv
__ZNK5dyld311MachOLoaded25ChainedFixupPointerOnDisk6Arm64e18signExtendedAddendEv.cold.1
__ZNK5dyld311MachOLoaded25ChainedFixupPointerOnDisk6Arm64e18signExtendedAddendEv.cold.2
__ZNK5dyld311MachOLoaded25ChainedFixupPointerOnDisk6Arm64e7keyNameEv
__ZNK5dyld311MachOLoaded25ChainedFixupPointerOnDisk6Arm64e7keyNameEv.cold.1
__ZNK5dyld311MachOLoaded25ChainedFixupPointerOnDisk6isBindEtRjRx
__ZNK5dyld311MachOLoaded25ChainedFixupPointerOnDisk6isBindEtRjRx.cold.1
__ZNK5dyld311MachOLoaded25ChainedFixupPointerOnDisk8isRebaseEtyRy
__ZNK5dyld311MachOLoaded25ChainedFixupPointerOnDisk8isRebaseEtyRy.cold.1
__ZNK5dyld311MachOLoaded27forEachFixupInSegmentChainsER11DiagnosticsPK30dyld_chained_starts_in_segmentbU13block_pointerFvPNS0_25ChainedFixupPointerOnDiskES5_RbE
__ZNK5dyld311MachOLoaded28forEachCDHashOfCodeSignatureEPKvmU13block_pointerFvPKhE
__ZNK5dyld311MachOLoaded8getSlideEv
__ZNK5dyld311MachOLoaded9walkChainER11DiagnosticsPNS0_25ChainedFixupPointerOnDiskEtbjU13block_pointerFvS4_RbE
__ZNK5dyld311MachOLoaded9walkChainER11DiagnosticsPNS0_25ChainedFixupPointerOnDiskEtbjU13block_pointerFvS4_RbE.cold.1
__ZNK5dyld312RootsChecker16onDiskFileIsRootEPKcPK15DyldSharedCachePKNS_7closure5ImageEPKNS6_10FileSystemEyy
__ZNK5dyld313MachOAnalyzer10isOSBinaryEiyy
__ZNK5dyld313MachOAnalyzer10mappedSizeEv
__ZNK5dyld313MachOAnalyzer11forEachBindER11DiagnosticsU13block_pointerFvPKcRKNS_11MachOLoaded12LinkEditInfoEPKNS_9MachOFile11SegmentInfoEbbjijhyhS4_bbyRbEU13block_pointerFvS4_E
__ZNK5dyld313MachOAnalyzer11forEachBindER11DiagnosticsU13block_pointerFvyiPKcbbyRbEU13block_pointerFvS4_E
__ZNK5dyld313MachOAnalyzer11forEachBindER11DiagnosticsU13block_pointerFvyihPKcbbyRbEU13block_pointerFvS4_E
__ZNK5dyld313MachOAnalyzer12forEachRPathEU13block_pointerFvPKcRbE
__ZNK5dyld313MachOAnalyzer12segmentCountEv
__ZNK5dyld313MachOAnalyzer13enforceFormatENS0_9MalformedE
__ZNK5dyld313MachOAnalyzer13forEachCDHashEU13block_pointerFvPKhE
__ZNK5dyld313MachOAnalyzer13forEachRebaseER11DiagnosticsU13block_pointerFvPKcRKNS_11MachOLoaded12LinkEditInfoEPKNS_9MachOFile11SegmentInfoEbjhyNS0_6RebaseERbE
__ZNK5dyld313MachOAnalyzer13forEachRebaseER11DiagnosticsU13block_pointerFvybRbE
__ZNK5dyld313MachOAnalyzer13forEachRebaseER11DiagnosticsbU13block_pointerFvyRbE
__ZNK5dyld313MachOAnalyzer13validBindInfoER11DiagnosticsPKc
__ZNK5dyld313MachOAnalyzer13validLinkeditER11DiagnosticsPKc
__ZNK5dyld313MachOAnalyzer13validSegmentsER11DiagnosticsPKcm
__ZNK5dyld313MachOAnalyzer15VMAddrConverter15convertToVMAddrEy
__ZNK5dyld313MachOAnalyzer15remapIfZeroFillER11DiagnosticsRKNS_7closure10FileSystemERNS3_14LoadedFileInfoE
__ZNK5dyld313MachOAnalyzer15validRebaseInfoER11DiagnosticsPKc
__ZNK5dyld313MachOAnalyzer15withChainStartsER11DiagnosticsyU13block_pointerFvPK28dyld_chained_starts_in_imageE
__ZNK5dyld313MachOAnalyzer16hasCodeSignatureERjS1_
__ZNK5dyld313MachOAnalyzer16invalidBindStateER11DiagnosticsPKcS4_RKNS_11MachOLoaded12LinkEditInfoEPKNS_9MachOFile11SegmentInfoEbbjijhyhS4_
__ZNK5dyld313MachOAnalyzer17chainStartsOffsetEv
__ZNK5dyld313MachOAnalyzer17forEachDOFSectionER11DiagnosticsU13block_pointerFvjE
__ZNK5dyld313MachOAnalyzer17forEachTerminatorER11DiagnosticsRKNS0_15VMAddrConverterEU13block_pointerFvjE
__ZNK5dyld313MachOAnalyzer17forEachTextRebaseER11DiagnosticsU13block_pointerFvyRbE
__ZNK5dyld313MachOAnalyzer17hasPlusLoadMethodER11Diagnostics
__ZNK5dyld313MachOAnalyzer17validLoadCommandsER11DiagnosticsPKcm
__ZNK5dyld313MachOAnalyzer18forEachInitializerER11DiagnosticsRKNS0_15VMAddrConverterEU13block_pointerFvjEPKv
__ZNK5dyld313MachOAnalyzer18getLazyBindOpcodesERj
__ZNK5dyld313MachOAnalyzer18invalidRebaseStateER11DiagnosticsPKcS4_RKNS_11MachOLoaded12LinkEditInfoEPKNS_9MachOFile11SegmentInfoEbjhyNS0_6RebaseE
__ZNK5dyld313MachOAnalyzer18validEmbeddedPathsER11DiagnosticsNS_8PlatformEPKc
__ZNK5dyld313MachOAnalyzer19chainedFixupsHeaderEv
__ZNK5dyld313MachOAnalyzer19makeVMAddrConverterEb
__ZNK5dyld313MachOAnalyzer19validLinkeditLayoutER11DiagnosticsPKc
__ZNK5dyld313MachOAnalyzer20chainedPointerFormatEv
__ZNK5dyld313MachOAnalyzer20chainedPointerFormatEv.cold.1
__ZNK5dyld313MachOAnalyzer20contentIsRegularStubEPKh
__ZNK5dyld313MachOAnalyzer20preferredLoadAddressEv
__ZNK5dyld313MachOAnalyzer21analyzeSegmentsLayoutERyRb
__ZNK5dyld313MachOAnalyzer21hasStompedLazyOpcodesEv
__ZNK5dyld313MachOAnalyzer21localRelocBaseAddressEPKNS_9MachOFile11SegmentInfoEj
__ZNK5dyld313MachOAnalyzer22forEachIndirectPointerER11DiagnosticsU13block_pointerFvybiPKcbbbRbE
__ZNK5dyld313MachOAnalyzer22hasFirmwareChainStartsEPtPjPPKj
__ZNK5dyld313MachOAnalyzer22validChainedFixupsInfoER11DiagnosticsPKc
__ZNK5dyld313MachOAnalyzer24externalRelocBaseAddressEPKNS_9MachOFile11SegmentInfoEj
__ZNK5dyld313MachOAnalyzer25forEachChainedFixupTargetER11DiagnosticsU13block_pointerFviPKcybRbE
__ZNK5dyld313MachOAnalyzer27parseOrgArm64eChainedFixupsER11DiagnosticsU13block_pointerFvjRbEU13block_pointerFvRKNS_11MachOLoaded12LinkEditInfoEPKNS_9MachOFile11SegmentInfoEbjihPKcybS3_EU13block_pointerFvS9_SD_hbytS3_E
__ZNK5dyld313MachOAnalyzer28validMachOForArchAndPlatformER11DiagnosticsmPKcRKNS_11GradedArchsENS_8PlatformEb
__ZNK5dyld313MachOAnalyzer31validChainedFixupsInfoOldArm64eER11DiagnosticsPKc
__ZNK5dyld313MachOAnalyzer32forEachInitializerPointerSectionER11DiagnosticsU13block_pointerFvjjPKhRbE
__ZNK5dyld313MachOAnalyzer7hasObjCEv
__ZNK5dyld313MachOAnalyzer9validMainER11DiagnosticsPKc
__ZNK5dyld316MachOAnalyzerSet12WrappedMachO11forEachBindER11DiagnosticsU13block_pointerFvyNS0_15PointerMetaDataERKNS0_11FixupTargetERbEU13block_pointerFvjjS7_E
__ZNK5dyld316MachOAnalyzerSet12WrappedMachO12findSymbolInER11DiagnosticsPKcyRNS0_11FixupTargetE
__ZNK5dyld316MachOAnalyzerSet12WrappedMachO12forEachFixupER11DiagnosticsU13block_pointerFvyNS0_15PointerMetaDataERKNS0_11FixupTargetERbEU13block_pointerFvjjS7_E
__ZNK5dyld316MachOAnalyzerSet18wmo_findSymbolFromEPKNS0_12WrappedMachOER11DiagnosticsiPKcbbyU13block_pointerFvjjRKNS0_11FixupTargetEERS8_
__ZNK5dyld316MachOAnalyzerSet18wmo_getExportsTrieEPKNS0_12WrappedMachOE
__ZNK5dyld316MachOAnalyzerSet23wmo_findExtraSymbolFromEPKNS0_12WrappedMachOEU13block_pointerFvjjRKNS0_11FixupTargetEE
__ZNK5dyld316MachOAnalyzerSet26mas_fromImageWeakDefLookupERKNS0_12WrappedMachOEPKcyU13block_pointerFvjjRKNS0_11FixupTargetEERS6_
__ZNK5dyld36Loader12forEachImageEU13block_pointerFvRKNS_11LoadedImageERbE
__ZNK5dyld36Loader13mas_dyldCacheEv
__ZNK5dyld36Loader13wmo_dependentEPKNS_16MachOAnalyzerSet12WrappedMachOEjRS2_Rb
__ZNK5dyld36Loader16mas_forEachImageEU13block_pointerFvRKNS_16MachOAnalyzerSet12WrappedMachOEbRbE
__ZNK5dyld36Loader18mas_mainExecutableERNS_16MachOAnalyzerSet12WrappedMachOE
__ZNK5dyld36Loader25wmo_missingSymbolResolverEPKNS_16MachOAnalyzerSet12WrappedMachOEbbPKcS6_S6_RNS1_11FixupTargetE
__ZNK5dyld36Loader8wmo_pathEPKNS_16MachOAnalyzerSet12WrappedMachOE
__ZNK5dyld36Loader9findImageEj
__ZNK5dyld37FatFile12forEachSliceER11DiagnosticsyU13block_pointerFvjjPKvyRbE
__ZNK5dyld37FatFile12isValidSliceER11Diagnosticsyjjjyy
__ZNK5dyld37FatFile18isFatFileWithSliceER11DiagnosticsyRKNS_11GradedArchsEbRyS6_Rb
__ZNK5dyld37closure10ImageArray11imageForNumEj
__ZNK5dyld37closure10ImageArray12forEachImageEU13block_pointerFvPKNS0_5ImageERbE
__ZNK5dyld37closure10ImageArray13startImageNumEv
__ZNK5dyld37closure10TypedBytes7payloadEv
__ZNK5dyld37closure12ObjCClassOpt12forEachClassEPKcRKNS_5ArrayINSt3__14pairImmEEEEU13block_pointerFvPvbPbE
__ZNK5dyld37closure12ObjCClassOpt12forEachClassEPKcRKNS_5ArrayINSt3__14pairImmEEEEU13block_pointerFvPvbPbE.cold.1
__ZNK5dyld37closure12ObjCClassOpt12forEachClassEPKcRKNS_5ArrayINSt3__14pairImmEEEEU13block_pointerFvPvbPbE.cold.2
__ZNK5dyld37closure12ObjCClassOpt12forEachClassEPKcRKNS_5ArrayINSt3__14pairImmEEEEU13block_pointerFvPvbPbE.cold.3
__ZNK5dyld37closure12ObjCClassOpt12forEachClassEPKcRKNS_5ArrayINSt3__14pairImmEEEEU13block_pointerFvPvbPbE.cold.4
__ZNK5dyld37closure13LaunchClosure15hasInterposingsEv
__ZNK5dyld37closure13LaunchClosure16initialLoadCountEv
__ZNK5dyld37closure13LaunchClosure17selectorHashTableERNS_5ArrayINS0_5Image17ObjCSelectorImageEEERPKNS0_15ObjCSelectorOptE
__ZNK5dyld37closure13LaunchClosure20hasInsertedLibrariesEv
__ZNK5dyld37closure13LaunchClosure23forEachInterposingTupleEU13block_pointerFvRKNS0_16InterposingTupleERbE
__ZNK5dyld37closure13LaunchClosure25duplicateClassesHashTableERPKNS0_22ObjCClassDuplicatesOptE
__ZNK5dyld37closure13LaunchClosure26classAndProtocolHashTablesERNS_5ArrayINS0_5Image14ObjCClassImageEEERPKNS0_12ObjCClassOptESA_
__ZNK5dyld37closure13LaunchClosure8getFlagsEv
__ZNK5dyld37closure13LaunchClosure8getFlagsEv.cold.1
__ZNK5dyld37closure13PathOverrides18forEachImageSuffixEPKcbbRbU13block_pointerFvS3_bS4_E
__ZNK5dyld37closure13PathOverrides18forEachPathVariantEPKcbU13block_pointerFvS3_bRbENS_8PlatformE
__ZNK5dyld37closure13PathOverrides20forEachDylibFallbackENS_8PlatformEU13block_pointerFvPKcRbE
__ZNK5dyld37closure13PathOverrides23getFrameworkPartialPathEPKc
__ZNK5dyld37closure13PathOverrides24forEachFrameworkFallbackENS_8PlatformEU13block_pointerFvPKcRbE
__ZNK5dyld37closure13PathOverrides9addSuffixEPKcS3_Pc
__ZNK5dyld37closure14ClosureBuilder11strdup_tempEPKc
__ZNK5dyld37closure14ClosureBuilder13mas_dyldCacheEv
__ZNK5dyld37closure14ClosureBuilder13wmo_dependentEPKNS_16MachOAnalyzerSet12WrappedMachOEjRS3_Rb
__ZNK5dyld37closure14ClosureBuilder15findLoadedImageEj
__ZNK5dyld37closure14ClosureBuilder15findLoadedImageEj.cold.1
__ZNK5dyld37closure14ClosureBuilder16mas_forEachImageEU13block_pointerFvRKNS_16MachOAnalyzerSet12WrappedMachOEbRbE
__ZNK5dyld37closure14ClosureBuilder18makeResolvedTargetERKNS_16MachOAnalyzerSet11FixupTargetE
__ZNK5dyld37closure14ClosureBuilder18makeResolvedTargetERKNS_16MachOAnalyzerSet11FixupTargetE.cold.1
__ZNK5dyld37closure14ClosureBuilder18makeResolvedTargetERKNS_16MachOAnalyzerSet11FixupTargetE.cold.2
__ZNK5dyld37closure14ClosureBuilder18makeResolvedTargetERKNS_16MachOAnalyzerSet11FixupTargetE.cold.3
__ZNK5dyld37closure14ClosureBuilder18mas_mainExecutableERNS_16MachOAnalyzerSet12WrappedMachOE
__ZNK5dyld37closure14ClosureBuilder18mas_mainExecutableERNS_16MachOAnalyzerSet12WrappedMachOE.cold.1
__ZNK5dyld37closure14ClosureBuilder18wmo_getExportsTrieEPKNS_16MachOAnalyzerSet12WrappedMachOE
__ZNK5dyld37closure14ClosureBuilder25wmo_missingSymbolResolverEPKNS_16MachOAnalyzerSet12WrappedMachOEbbPKcS7_S7_RNS2_11FixupTargetE
__ZNK5dyld37closure14ClosureBuilder26mas_fromImageWeakDefLookupERKNS_16MachOAnalyzerSet12WrappedMachOEPKcyU13block_pointerFvjjRKNS2_11FixupTargetEERS8_
__ZNK5dyld37closure14ClosureBuilder8wmo_pathEPKNS_16MachOAnalyzerSet12WrappedMachOE
__ZNK5dyld37closure15ObjCSelectorOpt17getStringLocationEjRKNS_5ArrayINS0_5Image17ObjCSelectorImageEEERjRy
__ZNK5dyld37closure15ObjCSelectorOpt17getStringLocationEjRKNS_5ArrayINS0_5Image17ObjCSelectorImageEEERjRy.cold.1
__ZNK5dyld37closure15ObjCStringTable18getPotentialTargetEPKc
__ZNK5dyld37closure15ObjCStringTable18getPotentialTargetEPKc.cold.1
__ZNK5dyld37closure15ObjCStringTable4hashEPKcm
__ZNK5dyld37closure15ObjCStringTable8getIndexEPKc
__ZNK5dyld37closure15ObjCStringTable8getIndexEPKc.cold.1
__ZNK5dyld37closure15ObjCStringTable9getStringEPKcRKNS_5ArrayImEE
__ZNK5dyld37closure15ObjCStringTable9getStringEPKcRKNS_5ArrayImEE.cold.1
__ZNK5dyld37closure18FileSystemPhysical10fileExistsEPKcPyS4_PbS5_
__ZNK5dyld37closure18FileSystemPhysical10unloadFileERKNS0_14LoadedFileInfoE
__ZNK5dyld37closure18FileSystemPhysical11forEachPathEPKcU13block_pointerFvS3_jRbE
__ZNK5dyld37closure18FileSystemPhysical11getRealPathEPKcPc
__ZNK5dyld37closure18FileSystemPhysical17unloadPartialFileERNS0_14LoadedFileInfoEyy
__ZNK5dyld37closure18FileSystemPhysical8loadFileEPKcRNS0_14LoadedFileInfoEPcU13block_pointerFvS3_zE
__ZNK5dyld37closure19ContainerTypedBytes16forEachAttributeEU13block_pointerFvPKNS0_10TypedBytesERbE
__ZNK5dyld37closure19ContainerTypedBytes16forEachAttributeEU13block_pointerFvPKNS0_10TypedBytesERbE.cold.1
__ZNK5dyld37closure19ContainerTypedBytes16forEachAttributeEU13block_pointerFvPKNS0_10TypedBytesERbE.cold.2
__ZNK5dyld37closure19ContainerTypedBytes16forEachAttributeEU13block_pointerFvPKNS0_10TypedBytesERbE.cold.3
__ZNK5dyld37closure19ContainerTypedBytes20findAttributePayloadENS0_10TypedBytes4TypeEPj
__ZNK5dyld37closure19ContainerTypedBytes20findAttributePayloadENS0_10TypedBytes4TypeEPj.cold.1
__ZNK5dyld37closure19ContainerTypedBytes20findAttributePayloadENS0_10TypedBytes4TypeEPj.cold.2
__ZNK5dyld37closure19ContainerTypedBytes20findAttributePayloadENS0_10TypedBytes4TypeEPj.cold.3
__ZNK5dyld37closure22ObjCClassDuplicatesOpt16getClassLocationEPKcPKN8objc_opt10objc_opt_tERPv
__ZNK5dyld37closure5Image10bindFixupsEv
__ZNK5dyld37closure5Image10forEachDOFEPKvU13block_pointerFvS3_E
__ZNK5dyld37closure5Image10forEachDOFEPKvU13block_pointerFvS3_E.cold.1
__ZNK5dyld37closure5Image10objcFixupsERNS1_20ResolvedSymbolTargetERyRNS_5ArrayINS1_16ProtocolISAFixupEEERNS5_INS1_22SelectorReferenceFixupEEERNS5_INS1_21ClassStableSwiftFixupEEERNS5_INS1_15MethodListFixupEEE
__ZNK5dyld37closure5Image11cacheOffsetEv
__ZNK5dyld37closure5Image11cacheOffsetEv.cold.1
__ZNK5dyld37closure5Image11cacheOffsetEv.cold.2
__ZNK5dyld37closure5Image11forEachBindEU13block_pointerFvyNS1_20ResolvedSymbolTargetERbE
__ZNK5dyld37closure5Image11inDyldCacheEv
__ZNK5dyld37closure5Image11neverUnloadEv
__ZNK5dyld37closure5Image11vmSizeToMapEv
__ZNK5dyld37closure5Image11vmSizeToMapEv.cold.1
__ZNK5dyld37closure5Image11vmSizeToMapEv.cold.2
__ZNK5dyld37closure5Image12forEachFixupEU13block_pointerFvyRbEU13block_pointerFvyNS1_20ResolvedSymbolTargetES2_EU13block_pointerFvyRKNS_5ArrayIS5_EES2_EU13block_pointerFvyES7_U13block_pointerFvyjbS2_ES4_S4_
__ZNK5dyld37closure5Image12forEachFixupEU13block_pointerFvyRbEU13block_pointerFvyNS1_20ResolvedSymbolTargetES2_EU13block_pointerFvyRKNS_5ArrayIS5_EES2_EU13block_pointerFvyES7_U13block_pointerFvyjbS2_ES4_S4_.cold.1
__ZNK5dyld37closure5Image12forEachFixupEU13block_pointerFvyRbEU13block_pointerFvyNS1_20ResolvedSymbolTargetES2_EU13block_pointerFvyRKNS_5ArrayIS5_EES2_EU13block_pointerFvyES7_U13block_pointerFvyjbS2_ES4_S4_.cold.2
__ZNK5dyld37closure5Image13forEachCDHashEU13block_pointerFvPKhRbE
__ZNK5dyld37closure5Image13variantStringEv
__ZNK5dyld37closure5Image14chainedTargetsEv
__ZNK5dyld37closure5Image14hasTerminatorsEv
__ZNK5dyld37closure5Image15containsAddressEPKvS3_Ph
__ZNK5dyld37closure5Image15dependentsArrayEv
__ZNK5dyld37closure5Image15dependentsArrayEv.cold.1
__ZNK5dyld37closure5Image15hasInitializersEv
__ZNK5dyld37closure5Image15hasReadOnlyDataEv
__ZNK5dyld37closure5Image16fixupsNotEncodedEv
__ZNK5dyld37closure5Image16hasCodeSignatureERjS2_
__ZNK5dyld37closure5Image16hasCodeSignatureERjS2_.cold.1
__ZNK5dyld37closure5Image16mayHavePlusLoadsEv
__ZNK5dyld37closure5Image16overridableDylibEv
__ZNK5dyld37closure5Image17dependentImageNumEj
__ZNK5dyld37closure5Image17dependentImageNumEj.cold.1
__ZNK5dyld37closure5Image17dependentImageNumEj.cold.2
__ZNK5dyld37closure5Image17forEachTerminatorEPKvU13block_pointerFvS3_E
__ZNK5dyld37closure5Image17forEachTerminatorEPKvU13block_pointerFvS3_E.cold.1
__ZNK5dyld37closure5Image17rebasesNotEncodedEv
__ZNK5dyld37closure5Image17sliceOffsetInFileEv
__ZNK5dyld37closure5Image17sliceOffsetInFileEv.cold.1
__ZNK5dyld37closure5Image17sliceOffsetInFileEv.cold.2
__ZNK5dyld37closure5Image18forEachDiskSegmentEU13block_pointerFvjjjxyhbRbE
__ZNK5dyld37closure5Image18forEachDiskSegmentEU13block_pointerFvjjjxyhbRbE.cold.1
__ZNK5dyld37closure5Image18forEachDiskSegmentEU13block_pointerFvjjjxyhbRbE.cold.2
__ZNK5dyld37closure5Image18forEachInitializerEPKvU13block_pointerFvS3_E
__ZNK5dyld37closure5Image18forEachInitializerEPKvU13block_pointerFvS3_E.cold.1
__ZNK5dyld37closure5Image18representsImageNumEj
__ZNK5dyld37closure5Image19chainedStartsOffsetEv
__ZNK5dyld37closure5Image19chainedStartsOffsetEv.cold.1
__ZNK5dyld37closure5Image19forEachCacheSegmentEU13block_pointerFvjyyhRbE
__ZNK5dyld37closure5Image19forEachCacheSegmentEU13block_pointerFvjyyhRbE.cold.1
__ZNK5dyld37closure5Image19forEachCacheSegmentEU13block_pointerFvjyyhRbE.cold.2
__ZNK5dyld37closure5Image19isFairPlayEncryptedERjS2_
__ZNK5dyld37closure5Image19isFairPlayEncryptedERjS2_.cold.1
__ZNK5dyld37closure5Image21forEachDependentImageEU13block_pointerFvjNS1_8LinkKindEjRbE
__ZNK5dyld37closure5Image21forEachDependentImageEU13block_pointerFvjNS1_8LinkKindEjRbE.cold.1
__ZNK5dyld37closure5Image22hasFileModTimeAndInodeERyS2_
__ZNK5dyld37closure5Image22hasFileModTimeAndInodeERyS2_.cold.1
__ZNK5dyld37closure5Image24forEachImageToInitBeforeEU13block_pointerFvjRbE
__ZNK5dyld37closure5Image24forEachImageToInitBeforeEU13block_pointerFvjRbE.cold.1
__ZNK5dyld37closure5Image26isOverrideOfDyldCacheImageERj
__ZNK5dyld37closure5Image26isOverrideOfDyldCacheImageERj.cold.1
__ZNK5dyld37closure5Image4pathEv
__ZNK5dyld37closure5Image4pathEv.cold.1
__ZNK5dyld37closure5Image7getUuidEPh
__ZNK5dyld37closure5Image7getUuidEPh.cold.1
__ZNK5dyld37closure5Image7hasObjCEv
__ZNK5dyld37closure5Image8imageNumEv
__ZNK5dyld37closure5Image8isBundleEv
__ZNK5dyld37closure5Image8leafNameEv
__ZNK5dyld37closure5Image8leafNameEv.cold.1
__ZNK5dyld37closure5Image8textSizeEv
__ZNK5dyld37closure5Image9isInvalidEv
__ZNK5dyld37closure7Closure11topImageNumEv
__ZNK5dyld37closure7Closure11topImageNumEv.cold.1
__ZNK5dyld37closure7Closure11topImageNumEv.cold.2
__ZNK5dyld37closure7Closure14forEachWarningENS1_7Warning4TypeEU13block_pointerFvPKcRbE
__ZNK5dyld37closure7Closure17forEachPatchEntryEU13block_pointerFvRKNS1_10PatchEntryEE
__ZNK5dyld37closure7Closure6imagesEv
__ZNK5dyld37closure7Closure8topImageEv
__ZNK5dyld37closure8PathPool11forEachPathEU13block_pointerFvPKcE
__ZNK5dyld37closure8PathPool8containsEPKc
__ZNK5dyld39AllImages12findImageNumEjRNS_11LoadedImageE
__ZNK5dyld39AllImages12forEachImageEU13block_pointerFvRKNS_11LoadedImageERbE
__ZNK5dyld39AllImages12isRestrictedEv
__ZNK5dyld39AllImages13resolveTargetENS_7closure5Image20ResolvedSymbolTargetE
__ZNK5dyld39AllImages13resolveTargetENS_7closure5Image20ResolvedSymbolTargetE.cold.1
__ZNK5dyld39AllImages13resolveTargetENS_7closure5Image20ResolvedSymbolTargetE.cold.2
__ZNK5dyld39AllImages13resolveTargetENS_7closure5Image20ResolvedSymbolTargetE.cold.3
__ZNK5dyld39AllImages14interposeValueEPv
__ZNK5dyld39AllImages14mainExecutableEv
__ZNK5dyld39AllImages14mainExecutableEv.cold.1
__ZNK5dyld39AllImages15getObjCSelectorEPKc
__ZNK5dyld39AllImages15immutableMemoryEPKvm
__ZNK5dyld39AllImages16forEachObjCClassEPKcU13block_pointerFvPvbPbE
__ZNK5dyld39AllImages16imagePathByIndexEj
__ZNK5dyld39AllImages17hasCacheOverridesEv
__ZNK5dyld39AllImages19forEachObjCProtocolEPKcU13block_pointerFvPvbPbE
__ZNK5dyld39AllImages19mainExecutableImageEv
__ZNK5dyld39AllImages19mainExecutableImageEv.cold.1
__ZNK5dyld39AllImages20infoForImageMappedAtEPKvPPKNS_11MachOLoadedEPyPPKc
__ZNK5dyld39AllImages20infoForImageMappedAtEPKvU13block_pointerFvRKNS_11LoadedImageEhE
__ZNK5dyld39AllImages20pathForImageMappedAtEPKv
__ZNK5dyld39AllImages22visitDependentsTopDownERKNS_11LoadedImageEU13block_pointerFvS3_RbE
__ZNK5dyld39AllImages23imageLoadAddressByIndexEj
__ZNK5dyld39AllImages27infoForImageWithLoadAddressEPKNS_11MachOLoadedEU13block_pointerFvRKNS_11LoadedImageEE
__ZNK5dyld39AllImages29breadthFirstRecurseDependentsERNS_5ArrayIjEERKNS_11LoadedImageERbU13block_pointerFvS6_S7_E
__ZNK5dyld39AllImages29infoForNonCachedImageMappedAtEPKvU13block_pointerFvRKNS_11LoadedImageEhE
__ZNK5dyld39AllImages33hasInsertedOrInterposingLibrariesEv
__ZNK5dyld39AllImages5archsEv
__ZNK5dyld39AllImages5countEv
__ZNK5dyld39AllImages8platformEv
__ZNK5dyld39AllImages9imagePathEPKNS_7closure5ImageE
__ZNK5dyld39MachOFile10forDyldEnvEU13block_pointerFvPKcRbE
__ZNK5dyld39MachOFile11hasWeakDefsEv
__ZNK5dyld39MachOFile11inDyldCacheEv
__ZNK5dyld39MachOFile11installNameEv
__ZNK5dyld39MachOFile11pointerSizeEv
__ZNK5dyld39MachOFile12isKextBundleEv
__ZNK5dyld39MachOFile12uses16KPagesEv
__ZNK5dyld39MachOFile13hasMachOMagicEv
__ZNK5dyld39MachOFile14forEachSectionEU13block_pointerFvRKNS0_11SectionInfoEbRbE
__ZNK5dyld39MachOFile14forEachSegmentEU13block_pointerFvRKNS0_11SegmentInfoERbE
__ZNK5dyld39MachOFile14hasLoadCommandEj
__ZNK5dyld39MachOFile14machHeaderSizeEv
__ZNK5dyld39MachOFile16builtForPlatformENS_8PlatformEb
__ZNK5dyld39MachOFile16hasChainedFixupsEv
__ZNK5dyld39MachOFile16isMainExecutableEv
__ZNK5dyld39MachOFile16maskedCpuSubtypeEv
__ZNK5dyld39MachOFile18forEachLoadCommandER11DiagnosticsU13block_pointerFvPK12load_commandRbE
__ZNK5dyld39MachOFile18isStaticExecutableEv
__ZNK5dyld39MachOFile19getDylibInstallNameEPPKcPjS4_
__ZNK5dyld39MachOFile19isDynamicExecutableEv
__ZNK5dyld39MachOFile19isFairPlayEncryptedERjS1_
__ZNK5dyld39MachOFile19loadableIntoProcessENS_8PlatformEPKc
__ZNK5dyld39MachOFile20enforceCompatVersionEv
__ZNK5dyld39MachOFile20hasInterposingTuplesEv
__ZNK5dyld39MachOFile21forEachDependentDylibEU13block_pointerFvPKcbbbjjRbE
__ZNK5dyld39MachOFile22entryAddrFromThreadCmdEPK14thread_command
__ZNK5dyld39MachOFile22entryAddrFromThreadCmdEPK14thread_command.cold.1
__ZNK5dyld39MachOFile23hasThreadLocalVariablesEv
__ZNK5dyld39MachOFile24forEachSupportedPlatformEU13block_pointerFvNS_8PlatformEjjE
__ZNK5dyld39MachOFile33findFairPlayEncryptionLoadCommandEv
__ZNK5dyld39MachOFile4is64Ev
__ZNK5dyld39MachOFile5isPIEEv
__ZNK5dyld39MachOFile6isArchEPKc
__ZNK5dyld39MachOFile7getUuidEPh
__ZNK5dyld39MachOFile7isDylibEv
__ZNK5dyld39MachOFile7isMachOER11Diagnosticsy
__ZNK5dyld39MachOFile8archNameEv
__ZNK5dyld39MachOFile8isBundleEv
__ZNK5dyld39MachOFile9isFileSetEv
__ZNK5dyld39MachOFile9isPreloadEv
__ZNK8objc_opt17objc_stringhash_t4hashEPKcm
__ZNK8objc_opt17objc_stringhash_t8getIndexEPKc
__ZTVN5dyld36LoaderE
__ZTVN5dyld37closure14ClosureBuilderE
__ZTVN5dyld37closure18FileSystemPhysicalE
__ZZ10NSAddImageE1p
__ZZ12NSAddLibraryE1p
__ZZ12NSLinkModuleE1p
__ZZ14NSNameOfModuleE1p
__ZZ14NSNameOfSymbolE1p
__ZZ14NSUnLinkModuleE1p
__ZZ15NSLinkEditErrorE1p
__ZZ16_dyld_fork_childE1p
__ZZ16dlopen_preflightE1p
__ZZ17NSAddressOfSymbolE1p
__ZZ17NSModuleForSymbolE1p
__ZZ17_dyld_image_countE1p
__ZZ20_NSGetExecutablePathE1p
__ZZ20_dyld_get_image_nameE1p
__ZZ21NSIsSymbolNameDefinedE1p
__ZZ21NSLookupAndBindSymbolE1p
__ZZ21NSLookupSymbolInImageE1p
__ZZ21_dyld_fast_stub_entryPvlE1p
__ZZ21_dyld_lookup_and_bindE1p
__ZZ22NSLibraryNameForModuleE1p
__ZZ22NSLookupSymbolInModuleE1p
__ZZ22_dyld_get_image_headerE1p
__ZZ22_dyld_is_objc_constantE17sharedCacheRanges
__ZZ22dyld_dynamic_interposeE1p
__ZZ23_dyld_launched_preboundE1p
__ZZ24NSDestroyObjectFileImageE1p
__ZZ25NSAddLibraryWithSearchingE1p
__ZZ25_dyld_get_all_image_infosE1p
__ZZ25_dyld_is_memory_immutableE1p
__ZZ26NSVersionOfLinkTimeLibraryE2mh
__ZZ26_dyld_find_unwind_sectionsE1p
__ZZ26_dyld_images_for_addressesE1p
__ZZ26_dyld_objc_notify_registerE1p
__ZZ26dyld_process_is_restrictedE1p
__ZZ27_dyld_get_prog_image_headerE1p
__ZZ27_dyld_get_shared_cache_uuidE1p
__ZZ27_dyld_lookup_and_bind_fullyE1p
__ZZ27dyld_shared_cache_file_pathE1p
__ZZ28NSIsSymbolNameDefinedInImageE1p
__ZZ28_dyld_get_image_vmaddr_slideE1p
__ZZ28_dyld_get_shared_cache_rangeE1p
__ZZ29NSIsSymbolNameDefinedWithHintE1p
__ZZ29NSLookupAndBindSymbolWithHintE1p
__ZZ29_dyld_register_driverkit_mainE1p
__ZZ30NSInstallLinkEditErrorHandlersE1p
__ZZ30_dyld_image_containing_addressE1p
__ZZ30_dyld_register_for_image_loadsE1p
__ZZ31NSCreateObjectFileImageFromFileE1p
__ZZ31_dyld_lookup_and_bind_with_hintE1p
__ZZ33NSCreateObjectFileImageFromMemoryE1p
__ZZ33NSGetSectionDataInObjectFileImageE1p
__ZZ33_dyld_register_func_for_add_imageE1p
__ZZ34NSIsSymbolDefinedInObjectFileImageE1p
__ZZ34dyld_image_path_containing_addressE1p
__ZZ35_dyld_all_twolevel_modules_preboundE1p
__ZZ35_dyld_register_for_bulk_image_loadsE1p
__ZZ36_dyld_register_func_for_remove_imageE1p
__ZZ36dyld_image_header_containing_addressE1p
__ZZ38NSSymbolReferenceNameInObjectFileImageE1p
__ZZ39NSSymbolDefinitionNameInObjectFileImageE1p
__ZZ39NSSymbolReferenceCountInObjectFileImageE1p
__ZZ39dyld_shared_cache_some_image_overriddenE1p
__ZZ40NSSymbolDefinitionCountInObjectFileImageE1p
__ZZ41_dyld_bind_fully_image_containing_addressE1p
__ZZ41_dyld_get_image_header_containing_addressE1p
__ZZ42dyld_has_inserted_or_interposing_librariesE1p
__ZZ5dlsymE1p
__ZZ6dladdrE1p
__ZZ7dlcloseE1p
__ZZ7dlerrorE1p
__ZZL14isLaunchdOwnedvE6result
__ZZL14isLaunchdOwnedvE7checked
__ZZL15dlopen_internalPKciPvE1p
__ZZN22dyld_process_info_base15copySegmentNameEPKcE11stdSegNames
__ZZN5dyld323dyld_get_image_versionsEPK11mach_headerU13block_pointerFvjjjEE22mainExecutablePlatform
__ZZN5dyld323dyld_get_image_versionsEPK11mach_headerU13block_pointerFvjjjEE24mainExecutableSDKVersion
__ZZN5dyld323dyld_get_image_versionsEPK11mach_headerU13block_pointerFvjjjEE26mainExecutableMinOSVersion
__ZZN5dyld3L20dlerror_perThreadKeyEvE17dlerrorPThreadKey
__ZZN5dyld3L20dlerror_perThreadKeyEvE9onceToken
__ZZN5dyld3L23deriveVersionFromDylibsEPK11mach_headerE14versionMapping
__ZZNK5dyld311MachOLoaded25ChainedFixupPointerOnDisk8Kernel647keyNameEvE5names
__ZZNK5dyld313MachOAnalyzer15remapIfZeroFillER11DiagnosticsRKNS_7closure10FileSystemERNS3_14LoadedFileInfoEEN3$_08__invokeERKS7_
__ZZNK5dyld37closure18FileSystemPhysical8loadFileEPKcRNS0_14LoadedFileInfoEPcU13block_pointerFvS3_zEEN3$_08__invokeERKS4_
__ZZNK5dyld39MachOFile19loadableIntoProcessENS_8PlatformEPKcE9macOSHost
___Block_byref_object_copy_
___Block_byref_object_copy_
___Block_byref_object_copy_
___Block_byref_object_copy_
___Block_byref_object_copy_
___Block_byref_object_copy_
___Block_byref_object_copy_
___Block_byref_object_copy_.1
___Block_byref_object_copy_.103
___Block_byref_object_copy_.105
___Block_byref_object_copy_.105
___Block_byref_object_copy_.118
___Block_byref_object_copy_.121
___Block_byref_object_copy_.129
___Block_byref_object_copy_.23
___Block_byref_object_copy_.278
___Block_byref_object_copy_.5
___Block_byref_object_copy_.53
___Block_byref_object_copy_.6
___Block_byref_object_copy_.82
___Block_byref_object_copy_.90
___Block_byref_object_dispose_
___Block_byref_object_dispose_
___Block_byref_object_dispose_
___Block_byref_object_dispose_
___Block_byref_object_dispose_
___Block_byref_object_dispose_
___Block_byref_object_dispose_
___Block_byref_object_dispose_.104
___Block_byref_object_dispose_.106
___Block_byref_object_dispose_.106
___Block_byref_object_dispose_.119
___Block_byref_object_dispose_.122
___Block_byref_object_dispose_.130
___Block_byref_object_dispose_.2
___Block_byref_object_dispose_.24
___Block_byref_object_dispose_.279
___Block_byref_object_dispose_.54
___Block_byref_object_dispose_.6
___Block_byref_object_dispose_.7
___Block_byref_object_dispose_.83
___Block_byref_object_dispose_.91
____Z16withRemoteObjectI14mach_header_64EvjybPiU13block_pointerFvT_E_block_invoke
____ZN22dyld_process_info_base13makeSuspendedI23dyld_all_image_infos_32EENSt3__110unique_ptrIS_25dyld_process_info_deleterEEjRKT_Pi_block_invoke
____ZN22dyld_process_info_base13makeSuspendedI23dyld_all_image_infos_64EENSt3__110unique_ptrIS_25dyld_process_info_deleterEEjRKT_Pi_block_invoke
____ZN22dyld_process_info_base29addInfoFromRemoteLoadCommandsEjy_block_invoke
____ZN22dyld_process_info_base29addInfoFromRemoteLoadCommandsEjy_block_invoke.3
____ZN22dyld_process_info_base4makeI23dyld_all_image_infos_3218dyld_image_info_32EENSt3__110unique_ptrIS_25dyld_process_info_deleterEEjRKT_yPi_block_invoke
____ZN22dyld_process_info_base4makeI23dyld_all_image_infos_3218dyld_image_info_32EENSt3__110unique_ptrIS_25dyld_process_info_deleterEEjRKT_yPi_block_invoke.20
____ZN22dyld_process_info_base4makeI23dyld_all_image_infos_6418dyld_image_info_64EENSt3__110unique_ptrIS_25dyld_process_info_deleterEEjRKT_yPi_block_invoke
____ZN22dyld_process_info_base4makeI23dyld_all_image_infos_6418dyld_image_info_64EENSt3__110unique_ptrIS_25dyld_process_info_deleterEEjRKT_yPi_block_invoke.30
____ZN22dyld_process_info_base8copyPathEjy_block_invoke
____ZN29dyld_process_info_notify_base7releaseEv_block_invoke
____ZN29dyld_process_info_notify_base8teardownEv_block_invoke
____ZN29dyld_process_info_notify_baseC2EP16dispatch_queue_sU13block_pointerFvbyyPKhPKcEU13block_pointerFvvEjPi_block_invoke
____ZN29dyld_process_info_notify_baseC2EP16dispatch_queue_sU13block_pointerFvbyyPKhPKcEU13block_pointerFvvEjPi_block_invoke_2
____ZN5dyld312NSLinkModuleEP19__NSObjectFileImagePKcj_block_invoke
____ZN5dyld312NSLinkModuleEP19__NSObjectFileImagePKcj_block_invoke.15
____ZN5dyld313MachOAnalyzer4loadER11DiagnosticsRKNS_7closure10FileSystemEPKcRKNS_11GradedArchsENS_8PlatformEPc_block_invoke
____ZN5dyld314NSNameOfModuleEP10__NSModule_block_invoke
____ZN5dyld314NSUnLinkModuleEP10__NSModulej_block_invoke
____ZN5dyld314dlsym_internalEPvPKcS0__block_invoke
____ZN5dyld314dlsym_internalEPvPKcS0__block_invoke.88
____ZN5dyld314dlsym_internalEPvPKcS0__block_invoke.91
____ZN5dyld314dlsym_internalEPvPKcS0__block_invoke.96
____ZN5dyld314dlsym_internalEPvPKcS0__block_invoke_2
____ZN5dyld317NSModuleForSymbolEP10__NSSymbol_block_invoke
____ZN5dyld317dyld_sdk_at_leastEPK11mach_header20dyld_build_version_t_block_invoke
____ZN5dyld319dyld_minos_at_leastEPK11mach_header20dyld_build_version_t_block_invoke
____ZN5dyld320VersionSPIDispatcher29setVersionMappingFastPathDataEPK11mach_header_block_invoke
____ZN5dyld320dyld_get_sdk_versionEPK11mach_header_block_invoke
____ZN5dyld322NSLibraryNameForModuleEP10__NSModule_block_invoke
____ZN5dyld323dyld_get_image_versionsEPK11mach_headerU13block_pointerFvjjjE_block_invoke
____ZN5dyld323dyld_get_image_versionsEPK11mach_headerU13block_pointerFvjjjE_block_invoke_2
____ZN5dyld323dyld_get_min_os_versionEPK11mach_header_block_invoke
____ZN5dyld324NSDestroyObjectFileImageEP19__NSObjectFileImage_block_invoke
____ZN5dyld325NSVersionOfRunTimeLibraryEPKc_block_invoke
____ZN5dyld326NSVersionOfLinkTimeLibraryEPKc_block_invoke
____ZN5dyld333NSGetSectionDataInObjectFileImageEP19__NSObjectFileImagePKcS3_Pm_block_invoke
____ZN5dyld334NSIsSymbolDefinedInObjectFileImageEP19__NSObjectFileImagePKc_block_invoke
____ZN5dyld335dyld_shared_cache_find_iterate_textEPKhPPKcU13block_pointerFvPK33dyld_shared_cache_dylib_text_infoE_block_invoke
____ZN5dyld335dyld_shared_cache_find_iterate_textEPKhPPKcU13block_pointerFvPK33dyld_shared_cache_dylib_text_infoE_block_invoke.121
____ZN5dyld36Loader18applyFixupsToImageER11DiagnosticsRNS_11LoadedImageE_block_invoke
____ZN5dyld36Loader18applyFixupsToImageER11DiagnosticsRNS_11LoadedImageE_block_invoke.107
____ZN5dyld36Loader18applyFixupsToImageER11DiagnosticsRNS_11LoadedImageE_block_invoke.117
____ZN5dyld36Loader18applyFixupsToImageER11DiagnosticsRNS_11LoadedImageE_block_invoke.89
____ZN5dyld36Loader18applyFixupsToImageER11DiagnosticsRNS_11LoadedImageE_block_invoke_2
____ZN5dyld36Loader18applyFixupsToImageER11DiagnosticsRNS_11LoadedImageE_block_invoke_2.108
____ZN5dyld36Loader18applyFixupsToImageER11DiagnosticsRNS_11LoadedImageE_block_invoke_2.121
____ZN5dyld36Loader18applyFixupsToImageER11DiagnosticsRNS_11LoadedImageE_block_invoke_2.95
____ZN5dyld36Loader18applyFixupsToImageER11DiagnosticsRNS_11LoadedImageE_block_invoke_3
____ZN5dyld36Loader18applyFixupsToImageER11DiagnosticsRNS_11LoadedImageE_block_invoke_3.124
____ZN5dyld36Loader18applyFixupsToImageER11DiagnosticsRNS_11LoadedImageE_block_invoke_3.124.cold.1
____ZN5dyld36Loader18applyFixupsToImageER11DiagnosticsRNS_11LoadedImageE_block_invoke_3.99
____ZN5dyld36Loader18applyFixupsToImageER11DiagnosticsRNS_11LoadedImageE_block_invoke_4
____ZN5dyld36Loader18applyFixupsToImageER11DiagnosticsRNS_11LoadedImageE_block_invoke_4.101
____ZN5dyld36Loader18applyFixupsToImageER11DiagnosticsRNS_11LoadedImageE_block_invoke_4.129
____ZN5dyld36Loader18applyFixupsToImageER11DiagnosticsRNS_11LoadedImageE_block_invoke_5
____ZN5dyld36Loader18applyFixupsToImageER11DiagnosticsRNS_11LoadedImageE_block_invoke_5.132
____ZN5dyld36Loader18applyFixupsToImageER11DiagnosticsRNS_11LoadedImageE_block_invoke_5.cold.1
____ZN5dyld36Loader18applyFixupsToImageER11DiagnosticsRNS_11LoadedImageE_block_invoke_6
____ZN5dyld36Loader20mapAndFixupAllImagesER11DiagnosticsbbPbS3__block_invoke
____ZN5dyld36Loader20mapAndFixupAllImagesER11DiagnosticsbbPbS3__block_invoke.25
____ZN5dyld36Loader20mapAndFixupAllImagesER11DiagnosticsbbPbS3__block_invoke_2
____ZN5dyld36Loader21completeAllDependentsER11DiagnosticsRb_block_invoke
____ZN5dyld36Loader21completeAllDependentsER11DiagnosticsRb_block_invoke.7
____ZN5dyld36Loader8mapImageER11DiagnosticsRNS_11LoadedImageEbPb_block_invoke
____ZN5dyld36Loader8mapImageER11DiagnosticsRNS_11LoadedImageEbPb_block_invoke.55
____ZN5dyld36Loader8mapImageER11DiagnosticsRNS_11LoadedImageEbPb_block_invoke.63
____ZN5dyld36Reaper14runTerminatorsERKNS_11LoadedImageE_block_invoke
____ZN5dyld36Reaper16markDependentsOfEPKNS_11LoadedImageE_block_invoke
____ZN5dyld36Reaper18finalizeDeadImagesEv_block_invoke
____ZN5dyld37closure13ClosureWriter16applyInterposingEPKNS0_13LaunchClosureE_block_invoke
____ZN5dyld37closure13ClosureWriter16applyInterposingEPKNS0_13LaunchClosureE_block_invoke_2
____ZN5dyld37closure13PathOverrides17setMainExecutableEPKNS_9MachOFileEPKc_block_invoke
____ZN5dyld37closure14ClosureBuilder10buildImageERNS0_11ImageWriterERNS1_18BuilderLoadedImageE_block_invoke
____ZN5dyld37closure14ClosureBuilder10buildImageERNS0_11ImageWriterERNS1_18BuilderLoadedImageE_block_invoke.44
____ZN5dyld37closure14ClosureBuilder10buildImageERNS0_11ImageWriterERNS1_18BuilderLoadedImageE_block_invoke.48
____ZN5dyld37closure14ClosureBuilder10buildImageERNS0_11ImageWriterERNS1_18BuilderLoadedImageE_block_invoke.55
____ZN5dyld37closure14ClosureBuilder10buildImageERNS0_11ImageWriterERNS1_18BuilderLoadedImageE_block_invoke.59
____ZN5dyld37closure14ClosureBuilder10buildImageERNS0_11ImageWriterERNS1_18BuilderLoadedImageE_block_invoke_2
____ZN5dyld37closure14ClosureBuilder10buildImageERNS0_11ImageWriterERNS1_18BuilderLoadedImageE_block_invoke_2.51
____ZN5dyld37closure14ClosureBuilder11addSegmentsERNS0_11ImageWriterEPKNS_13MachOAnalyzerE_block_invoke
____ZN5dyld37closure14ClosureBuilder11addSegmentsERNS0_11ImageWriterEPKNS_13MachOAnalyzerE_block_invoke_2
____ZN5dyld37closure14ClosureBuilder12addFixupInfoERNS0_11ImageWriterERNS1_18BuilderLoadedImageE_block_invoke
____ZN5dyld37closure14ClosureBuilder12addFixupInfoERNS0_11ImageWriterERNS1_18BuilderLoadedImageE_block_invoke.109
____ZN5dyld37closure14ClosureBuilder12addFixupInfoERNS0_11ImageWriterERNS1_18BuilderLoadedImageE_block_invoke.123
____ZN5dyld37closure14ClosureBuilder12addFixupInfoERNS0_11ImageWriterERNS1_18BuilderLoadedImageE_block_invoke.123.cold.1
____ZN5dyld37closure14ClosureBuilder12addFixupInfoERNS0_11ImageWriterERNS1_18BuilderLoadedImageE_block_invoke_2
____ZN5dyld37closure14ClosureBuilder12addFixupInfoERNS0_11ImageWriterERNS1_18BuilderLoadedImageE_block_invoke_2.cold.1
____ZN5dyld37closure14ClosureBuilder17makeDlopenClosureEPKcPKNS0_13LaunchClosureERKNS_5ArrayINS_11LoadedImageEEEjbbbPj_block_invoke
____ZN5dyld37closure14ClosureBuilder17makeDlopenClosureEPKcPKNS0_13LaunchClosureERKNS_5ArrayINS_11LoadedImageEEEjbbbPj_block_invoke_2
____ZN5dyld37closure14ClosureBuilder17makeDlopenClosureEPKcPKNS0_13LaunchClosureERKNS_5ArrayINS_11LoadedImageEEEjbbbPj_block_invoke_3
____ZN5dyld37closure14ClosureBuilder19addChainedFixupInfoERNS0_11ImageWriterERNS1_18BuilderLoadedImageE_block_invoke
____ZN5dyld37closure14ClosureBuilder19addChainedFixupInfoERNS0_11ImageWriterERNS1_18BuilderLoadedImageE_block_invoke.131
____ZN5dyld37closure14ClosureBuilder22forEachResolvedPathVarEPKcRKNS1_16LoadedImageChainEbNS1_11LinkageTypeEU13block_pointerFvS3_RbE_block_invoke
____ZN5dyld37closure14ClosureBuilder23recursiveLoadDependentsERNS1_16LoadedImageChainEb_block_invoke
____ZN5dyld37closure14ClosureBuilder23recursiveLoadDependentsERNS1_16LoadedImageChainEb_block_invoke.cold.1
____ZN5dyld37closure14ClosureBuilder23recursiveLoadDependentsERNS1_16LoadedImageChainEb_block_invoke_2
____ZN5dyld37closure14ClosureBuilder9findImageEPKcRKNS1_16LoadedImageChainERPNS1_18BuilderLoadedImageENS1_11LinkageTypeEjb_block_invoke
____ZN5dyld37closure14ClosureBuilder9findImageEPKcRKNS1_16LoadedImageChainERPNS1_18BuilderLoadedImageENS1_11LinkageTypeEjb_block_invoke_2
____ZN5dyld37closure14ClosureBuilder9findImageEPKcRKNS1_16LoadedImageChainERPNS1_18BuilderLoadedImageENS1_11LinkageTypeEjb_block_invoke_2.cold.1
____ZN5dyld37closure14ClosureBuilder9findImageEPKcRKNS1_16LoadedImageChainERPNS1_18BuilderLoadedImageENS1_11LinkageTypeEjb_block_invoke_3
____ZN5dyld37dlcloseEPv_block_invoke
____ZN5dyld39AllImages12findImageNumEjRj_block_invoke
____ZN5dyld39AllImages12findImageNumEjRj_block_invoke.cold.1
____ZN5dyld39AllImages12findImageNumEjRj_block_invoke.cold.2
____ZN5dyld39AllImages12removeImagesERKNS_5ArrayINS_11LoadedImageEEE_block_invoke
____ZN5dyld39AllImages12removeImagesERKNS_5ArrayINS_11LoadedImageEEE_block_invoke_2
____ZN5dyld39AllImages12removeImagesERKNS_5ArrayINS_11LoadedImageEEE_block_invoke_2.cold.1
____ZN5dyld39AllImages12removeImagesERKNS_5ArrayINS_11LoadedImageEEE_block_invoke_2.cold.2
____ZN5dyld39AllImages13findDependentEPKNS_11MachOLoadedEj_block_invoke
____ZN5dyld39AllImages14swapImageStateEjRjNS_11LoadedImage5StateES3__block_invoke
____ZN5dyld39AllImages14swapImageStateEjRjNS_11LoadedImage5StateES3__block_invoke.cold.1
____ZN5dyld39AllImages14swapImageStateEjRjNS_11LoadedImage5StateES3__block_invoke.cold.2
____ZN5dyld39AllImages15addLoadNotifierEPFvPK11mach_headerPKcbE_block_invoke
____ZN5dyld39AllImages15addLoadNotifierEPFvPK11mach_headerPKcbE_block_invoke_2
____ZN5dyld39AllImages15addLoadNotifierEPFvPK11mach_headerlE_block_invoke
____ZN5dyld39AllImages15addLoadNotifierEPFvPK11mach_headerlE_block_invoke_2
____ZN5dyld39AllImages16setObjCNotifiersEPFvjPKPKcPKPK11mach_headerEPFvS2_S7_ESD__block_invoke
____ZN5dyld39AllImages17addUnloadNotifierEPFvPK11mach_headerlE_block_invoke
____ZN5dyld39AllImages17runImageCallbacksERKNS_5ArrayINS_11LoadedImageEEE_block_invoke
____ZN5dyld39AllImages17runImageCallbacksERKNS_5ArrayINS_11LoadedImageEEE_block_invoke.cold.1
____ZN5dyld39AllImages17runImageNotifiersERKNS_5ArrayINS_11LoadedImageEEE_block_invoke
____ZN5dyld39AllImages19addBulkLoadNotifierEPFvjPPK11mach_headerPPKcE_block_invoke
____ZN5dyld39AllImages20addNSObjectFileImageERK7OFIInfo_block_invoke
____ZN5dyld39AllImages20addNSObjectFileImageERK7OFIInfo_block_invoke.cold.1
____ZN5dyld39AllImages20forNSObjectFileImageEP19__NSObjectFileImageU13block_pointerFvR7OFIInfoE_block_invoke
____ZN5dyld39AllImages20garbageCollectImagesEv_block_invoke
____ZN5dyld39AllImages21runStartupInitialzersEv_block_invoke
____ZN5dyld39AllImages21runStartupInitialzersEv_block_invoke.cold.1
____ZN5dyld39AllImages21runStartupInitialzersEv_block_invoke.cold.2
____ZN5dyld39AllImages22runInitialzersBottomUpEPKNS_7closure5ImageE_block_invoke
____ZN5dyld39AllImages23removeNSObjectFileImageEP19__NSObjectFileImage_block_invoke
____ZN5dyld39AllImages23removeNSObjectFileImageEP19__NSObjectFileImage_block_invoke.cold.1
____ZN5dyld39AllImages23removeNSObjectFileImageEP19__NSObjectFileImage_block_invoke.cold.2
____ZN5dyld39AllImages24mirrorToOldAllImageInfosEv_block_invoke
____ZN5dyld39AllImages25runAllInitializersInImageEPKNS_7closure5ImageEPKNS_11MachOLoadedE_block_invoke
____ZN5dyld39AllImages27applyInterposingToDyldCacheEPKNS_7closure7ClosureE_block_invoke
____ZN5dyld39AllImages27applyInterposingToDyldCacheEPKNS_7closure7ClosureE_block_invoke.cold.1
____ZN5dyld39AllImages27applyInterposingToDyldCacheEPKNS_7closure7ClosureE_block_invoke.cold.2
____ZN5dyld39AllImages27applyInterposingToDyldCacheEPKNS_7closure7ClosureE_block_invoke.cold.3
____ZN5dyld39AllImages27applyInterposingToDyldCacheEPKNS_7closure7ClosureE_block_invoke_2
____ZN5dyld39AllImages4initEPKNS_7closure13LaunchClosureEPK15DyldSharedCachePKcRKNS_5ArrayINS_11LoadedImageEEE_block_invoke
____ZN5dyld39AllImages9addImagesERKNS_5ArrayINS_11LoadedImageEEE_block_invoke
____ZN5dyld3L12dlsym_searchEPKcRKNS_11LoadedImageEbU13block_pointerFPKNS_11MachOLoadedES7_jEPb_block_invoke
____ZN5dyld3L12dlsym_searchEPKcRKNS_11LoadedImageEbU13block_pointerFPKNS_11MachOLoadedES7_jEPb_block_invoke_2
____ZN5dyld3L14flatFindSymbolEPKcPPvPPK11mach_header_block_invoke
____ZN5dyld3L14flatFindSymbolEPKcPPvPPK11mach_header_block_invoke_2
____ZN5dyld3L18linkedDylibVersionEPK11mach_headerPKc_block_invoke
____ZN5dyld3L32dyld_get_image_versions_internalEPK11mach_headerU13block_pointerFvjjjE_block_invoke
____ZNK15DyldSharedCache10mappedSizeEv_block_invoke
____ZNK15DyldSharedCache7objcOptEv_block_invoke
____ZNK5dyld311MachOLoaded11segmentNameEj_block_invoke
____ZNK5dyld311MachOLoaded13getLayoutInfoERNS0_10LayoutInfoE_block_invoke
____ZNK5dyld311MachOLoaded17findClosestSymbolEyPPKcPy_block_invoke
____ZNK5dyld311MachOLoaded17hasExportedSymbolEPKcU13block_pointerFPKS0_S4_jEPPvPb_block_invoke
____ZNK5dyld311MachOLoaded18findExportedSymbolER11DiagnosticsPKcbRNS0_11FoundSymbolEU13block_pointerFPKS0_S8_jE_block_invoke
____ZNK5dyld311MachOLoaded18findExportedSymbolER11DiagnosticsPKcbRNS0_11FoundSymbolEU13block_pointerFPKS0_S8_jE_block_invoke.42
____ZNK5dyld311MachOLoaded18findExportedSymbolER11DiagnosticsPKcbRNS0_11FoundSymbolEU13block_pointerFPKS0_S8_jE_block_invoke_2
____ZNK5dyld311MachOLoaded18findSectionContentEPKcS2_Ry_block_invoke
____ZNK5dyld311MachOLoaded19dependentDylibCountEv_block_invoke
____ZNK5dyld311MachOLoaded21fixupAllChainedFixupsER11DiagnosticsPK28dyld_chained_starts_in_imagemNS_5ArrayIPKvEEU13block_pointerFvPvSA_E_block_invoke
____ZNK5dyld311MachOLoaded23getLinkEditLoadCommandsER11DiagnosticsRNS0_12LinkEditInfoE_block_invoke
____ZNK5dyld311MachOLoaded27forEachFixupInSegmentChainsER11DiagnosticsPK30dyld_chained_starts_in_segmentbU13block_pointerFvPNS0_25ChainedFixupPointerOnDiskES5_RbE_block_invoke
____ZNK5dyld311MachOLoaded28forEachCDHashOfCodeSignatureEPKvmU13block_pointerFvPKhE_block_invoke
____ZNK5dyld311MachOLoaded8getSlideEv_block_invoke
____ZNK5dyld313MachOAnalyzer11forEachBindER11DiagnosticsU13block_pointerFvPKcRKNS_11MachOLoaded12LinkEditInfoEPKNS_9MachOFile11SegmentInfoEbbjijhyhS4_bbyRbEU13block_pointerFvS4_E_block_invoke
____ZNK5dyld313MachOAnalyzer11forEachBindER11DiagnosticsU13block_pointerFvyiPKcbbyRbEU13block_pointerFvS4_E_block_invoke
____ZNK5dyld313MachOAnalyzer11forEachBindER11DiagnosticsU13block_pointerFvyihPKcbbyRbEU13block_pointerFvS4_E_block_invoke
____ZNK5dyld313MachOAnalyzer11forEachBindER11DiagnosticsU13block_pointerFvyihPKcbbyRbEU13block_pointerFvS4_E_block_invoke.185
____ZNK5dyld313MachOAnalyzer12forEachRPathEU13block_pointerFvPKcRbE_block_invoke
____ZNK5dyld313MachOAnalyzer12segmentCountEv_block_invoke
____ZNK5dyld313MachOAnalyzer13enforceFormatENS0_9MalformedE_block_invoke
____ZNK5dyld313MachOAnalyzer13forEachRebaseER11DiagnosticsU13block_pointerFvPKcRKNS_11MachOLoaded12LinkEditInfoEPKNS_9MachOFile11SegmentInfoEbjhyNS0_6RebaseERbE_block_invoke
____ZNK5dyld313MachOAnalyzer13forEachRebaseER11DiagnosticsU13block_pointerFvybRbE_block_invoke
____ZNK5dyld313MachOAnalyzer13forEachRebaseER11DiagnosticsU13block_pointerFvybRbE_block_invoke.141
____ZNK5dyld313MachOAnalyzer13forEachRebaseER11DiagnosticsbU13block_pointerFvyRbE_block_invoke
____ZNK5dyld313MachOAnalyzer13validBindInfoER11DiagnosticsPKc_block_invoke
____ZNK5dyld313MachOAnalyzer13validBindInfoER11DiagnosticsPKc_block_invoke_2
____ZNK5dyld313MachOAnalyzer13validSegmentsER11DiagnosticsPKcm_block_invoke
____ZNK5dyld313MachOAnalyzer13validSegmentsER11DiagnosticsPKcm_block_invoke.44
____ZNK5dyld313MachOAnalyzer13validSegmentsER11DiagnosticsPKcm_block_invoke.56
____ZNK5dyld313MachOAnalyzer13validSegmentsER11DiagnosticsPKcm_block_invoke.67
____ZNK5dyld313MachOAnalyzer13validSegmentsER11DiagnosticsPKcm_block_invoke_2
____ZNK5dyld313MachOAnalyzer15remapIfZeroFillER11DiagnosticsRKNS_7closure10FileSystemERNS3_14LoadedFileInfoE_block_invoke
____ZNK5dyld313MachOAnalyzer15validRebaseInfoER11DiagnosticsPKc_block_invoke
____ZNK5dyld313MachOAnalyzer15withChainStartsER11DiagnosticsyU13block_pointerFvPK28dyld_chained_starts_in_imageE_block_invoke
____ZNK5dyld313MachOAnalyzer16hasCodeSignatureERjS1__block_invoke
____ZNK5dyld313MachOAnalyzer16hasCodeSignatureERjS1__block_invoke_2
____ZNK5dyld313MachOAnalyzer17forEachDOFSectionER11DiagnosticsU13block_pointerFvjE_block_invoke
____ZNK5dyld313MachOAnalyzer17forEachTerminatorER11DiagnosticsRKNS0_15VMAddrConverterEU13block_pointerFvjE_block_invoke
____ZNK5dyld313MachOAnalyzer17forEachTerminatorER11DiagnosticsRKNS0_15VMAddrConverterEU13block_pointerFvjE_block_invoke.314
____ZNK5dyld313MachOAnalyzer17forEachTextRebaseER11DiagnosticsU13block_pointerFvyRbE_block_invoke
____ZNK5dyld313MachOAnalyzer17hasPlusLoadMethodER11Diagnostics_block_invoke
____ZNK5dyld313MachOAnalyzer17hasPlusLoadMethodER11Diagnostics_block_invoke.340
____ZNK5dyld313MachOAnalyzer17validLoadCommandsER11DiagnosticsPKcm_block_invoke
____ZNK5dyld313MachOAnalyzer17validLoadCommandsER11DiagnosticsPKcm_block_invoke_2
____ZNK5dyld313MachOAnalyzer18forEachInitializerER11DiagnosticsRKNS0_15VMAddrConverterEU13block_pointerFvjEPKv_block_invoke
____ZNK5dyld313MachOAnalyzer18forEachInitializerER11DiagnosticsRKNS0_15VMAddrConverterEU13block_pointerFvjEPKv_block_invoke.287
____ZNK5dyld313MachOAnalyzer18forEachInitializerER11DiagnosticsRKNS0_15VMAddrConverterEU13block_pointerFvjEPKv_block_invoke.292
____ZNK5dyld313MachOAnalyzer18forEachInitializerER11DiagnosticsRKNS0_15VMAddrConverterEU13block_pointerFvjEPKv_block_invoke.299
____ZNK5dyld313MachOAnalyzer18validEmbeddedPathsER11DiagnosticsNS_8PlatformEPKc_block_invoke
____ZNK5dyld313MachOAnalyzer19getAllSegmentsInfosER11DiagnosticsPNS_9MachOFile11SegmentInfoE_block_invoke
____ZNK5dyld313MachOAnalyzer20preferredLoadAddressEv_block_invoke
____ZNK5dyld313MachOAnalyzer21analyzeSegmentsLayoutERyRb_block_invoke
____ZNK5dyld313MachOAnalyzer22forEachIndirectPointerER11DiagnosticsU13block_pointerFvybiPKcbbbRbE_block_invoke
____ZNK5dyld313MachOAnalyzer25forEachChainedFixupTargetER11DiagnosticsU13block_pointerFviPKcybRbE_block_invoke
____ZNK5dyld313MachOAnalyzer31validChainedFixupsInfoOldArm64eER11DiagnosticsPKc_block_invoke
____ZNK5dyld313MachOAnalyzer31validChainedFixupsInfoOldArm64eER11DiagnosticsPKc_block_invoke.235
____ZNK5dyld313MachOAnalyzer31validChainedFixupsInfoOldArm64eER11DiagnosticsPKc_block_invoke.246
____ZNK5dyld313MachOAnalyzer32forEachInitializerPointerSectionER11DiagnosticsU13block_pointerFvjjPKhRbE_block_invoke
____ZNK5dyld313MachOAnalyzer7hasObjCEv_block_invoke
____ZNK5dyld313MachOAnalyzer9validMainER11DiagnosticsPKc_block_invoke
____ZNK5dyld313MachOAnalyzer9validMainER11DiagnosticsPKc_block_invoke.78
____ZNK5dyld313MachOAnalyzer9validMainER11DiagnosticsPKc_block_invoke_2
____ZNK5dyld316MachOAnalyzerSet12WrappedMachO11forEachBindER11DiagnosticsU13block_pointerFvyNS0_15PointerMetaDataERKNS0_11FixupTargetERbEU13block_pointerFvjjS7_E_block_invoke
____ZNK5dyld316MachOAnalyzerSet12WrappedMachO11forEachBindER11DiagnosticsU13block_pointerFvyNS0_15PointerMetaDataERKNS0_11FixupTargetERbEU13block_pointerFvjjS7_E_block_invoke.3
____ZNK5dyld316MachOAnalyzerSet12WrappedMachO12findSymbolInER11DiagnosticsPKcyRNS0_11FixupTargetE_block_invoke
____ZNK5dyld316MachOAnalyzerSet12WrappedMachO12findSymbolInER11DiagnosticsPKcyRNS0_11FixupTargetE_block_invoke_2
____ZNK5dyld316MachOAnalyzerSet12WrappedMachO12forEachFixupER11DiagnosticsU13block_pointerFvyNS0_15PointerMetaDataERKNS0_11FixupTargetERbEU13block_pointerFvjjS7_E_block_invoke
____ZNK5dyld316MachOAnalyzerSet12WrappedMachO12forEachFixupER11DiagnosticsU13block_pointerFvyNS0_15PointerMetaDataERKNS0_11FixupTargetERbEU13block_pointerFvjjS7_E_block_invoke.10
____ZNK5dyld316MachOAnalyzerSet12WrappedMachO12forEachFixupER11DiagnosticsU13block_pointerFvyNS0_15PointerMetaDataERKNS0_11FixupTargetERbEU13block_pointerFvjjS7_E_block_invoke.18
____ZNK5dyld316MachOAnalyzerSet12WrappedMachO12forEachFixupER11DiagnosticsU13block_pointerFvyNS0_15PointerMetaDataERKNS0_11FixupTargetERbEU13block_pointerFvjjS7_E_block_invoke.21
____ZNK5dyld316MachOAnalyzerSet12WrappedMachO12forEachFixupER11DiagnosticsU13block_pointerFvyNS0_15PointerMetaDataERKNS0_11FixupTargetERbEU13block_pointerFvjjS7_E_block_invoke.cold.1
____ZNK5dyld316MachOAnalyzerSet12WrappedMachO12forEachFixupER11DiagnosticsU13block_pointerFvyNS0_15PointerMetaDataERKNS0_11FixupTargetERbEU13block_pointerFvjjS7_E_block_invoke_2
____ZNK5dyld316MachOAnalyzerSet18wmo_findSymbolFromEPKNS0_12WrappedMachOER11DiagnosticsiPKcbbyU13block_pointerFvjjRKNS0_11FixupTargetEERS8__block_invoke
____ZNK5dyld316MachOAnalyzerSet26mas_fromImageWeakDefLookupERKNS0_12WrappedMachOEPKcyU13block_pointerFvjjRKNS0_11FixupTargetEERS6__block_invoke
____ZNK5dyld36Loader16mas_forEachImageEU13block_pointerFvRKNS_16MachOAnalyzerSet12WrappedMachOEbRbE_block_invoke
____ZNK5dyld36Loader18mas_mainExecutableERNS_16MachOAnalyzerSet12WrappedMachOE_block_invoke
____ZNK5dyld36Loader25wmo_missingSymbolResolverEPKNS_16MachOAnalyzerSet12WrappedMachOEbbPKcS6_S6_RNS1_11FixupTargetE_block_invoke
____ZNK5dyld37FatFile18isFatFileWithSliceER11DiagnosticsyRKNS_11GradedArchsEbRyS6_Rb_block_invoke
____ZNK5dyld37closure10ImageArray11imageForNumEj_block_invoke
____ZNK5dyld37closure13LaunchClosure15hasInterposingsEv_block_invoke
____ZNK5dyld37closure13LaunchClosure23forEachInterposingTupleEU13block_pointerFvRKNS0_16InterposingTupleERbE_block_invoke
____ZNK5dyld37closure13LaunchClosure23forEachInterposingTupleEU13block_pointerFvRKNS0_16InterposingTupleERbE_block_invoke.cold.1
____ZNK5dyld37closure13PathOverrides18forEachImageSuffixEPKcbbRbU13block_pointerFvS3_bS4_E_block_invoke
____ZNK5dyld37closure13PathOverrides18forEachPathVariantEPKcbU13block_pointerFvS3_bRbENS_8PlatformE_block_invoke
____ZNK5dyld37closure13PathOverrides18forEachPathVariantEPKcbU13block_pointerFvS3_bRbENS_8PlatformE_block_invoke.29
____ZNK5dyld37closure13PathOverrides18forEachPathVariantEPKcbU13block_pointerFvS3_bRbENS_8PlatformE_block_invoke.36
____ZNK5dyld37closure13PathOverrides18forEachPathVariantEPKcbU13block_pointerFvS3_bRbENS_8PlatformE_block_invoke.40
____ZNK5dyld37closure13PathOverrides20forEachDylibFallbackENS_8PlatformEU13block_pointerFvPKcRbE_block_invoke
____ZNK5dyld37closure13PathOverrides24forEachFrameworkFallbackENS_8PlatformEU13block_pointerFvPKcRbE_block_invoke
____ZNK5dyld37closure18FileSystemPhysical10fileExistsEPKcPyS4_PbS5__block_invoke
____ZNK5dyld37closure18FileSystemPhysical11getRealPathEPKcPc_block_invoke
____ZNK5dyld37closure18FileSystemPhysical8loadFileEPKcRNS0_14LoadedFileInfoEPcU13block_pointerFvS3_zE_block_invoke
____ZNK5dyld37closure18FileSystemPhysical8loadFileEPKcRNS0_14LoadedFileInfoEPcU13block_pointerFvS3_zE_block_invoke.14
____ZNK5dyld37closure19ContainerTypedBytes23forEachAttributePayloadENS0_10TypedBytes4TypeEU13block_pointerFvPKvjRbE_block_invoke
____ZNK5dyld37closure5Image13forEachCDHashEU13block_pointerFvPKhRbE_block_invoke
____ZNK5dyld37closure5Image13forEachCDHashEU13block_pointerFvPKhRbE_block_invoke.cold.1
____ZNK5dyld37closure5Image15containsAddressEPKvS3_Ph_block_invoke
____ZNK5dyld37closure5Image15containsAddressEPKvS3_Ph_block_invoke.33
____ZNK5dyld37closure5Image8textSizeEv_block_invoke
____ZNK5dyld37closure5Image8textSizeEv_block_invoke.25
____ZNK5dyld37closure7Closure14forEachWarningENS1_7Warning4TypeEU13block_pointerFvPKcRbE_block_invoke
____ZNK5dyld37closure7Closure17forEachPatchEntryEU13block_pointerFvRKNS1_10PatchEntryEE_block_invoke
____ZNK5dyld37closure7Closure17forEachPatchEntryEU13block_pointerFvRKNS1_10PatchEntryEE_block_invoke.cold.1
____ZNK5dyld37closure7Closure6imagesEv_block_invoke
____ZNK5dyld39AllImages12forEachImageEU13block_pointerFvRKNS_11LoadedImageERbE_block_invoke
____ZNK5dyld39AllImages14interposeValueEPv_block_invoke
____ZNK5dyld39AllImages16imagePathByIndexEj_block_invoke
____ZNK5dyld39AllImages20infoForImageMappedAtEPKvPPKNS_11MachOLoadedEPyPPKc_block_invoke
____ZNK5dyld39AllImages20infoForImageMappedAtEPKvPPKNS_11MachOLoadedEPyPPKc_block_invoke.43
____ZNK5dyld39AllImages20infoForImageMappedAtEPKvPPKNS_11MachOLoadedEPyPPKc_block_invoke.47
____ZNK5dyld39AllImages20infoForImageMappedAtEPKvU13block_pointerFvRKNS_11LoadedImageEhE_block_invoke
____ZNK5dyld39AllImages20pathForImageMappedAtEPKv_block_invoke
____ZNK5dyld39AllImages20pathForImageMappedAtEPKv_block_invoke.34
____ZNK5dyld39AllImages22visitDependentsTopDownERKNS_11LoadedImageEU13block_pointerFvS3_RbE_block_invoke
____ZNK5dyld39AllImages22visitDependentsTopDownERKNS_11LoadedImageEU13block_pointerFvS3_RbE_block_invoke.cold.1
____ZNK5dyld39AllImages23imageLoadAddressByIndexEj_block_invoke
____ZNK5dyld39AllImages27infoForImageWithLoadAddressEPKNS_11MachOLoadedEU13block_pointerFvRKNS_11LoadedImageEE_block_invoke
____ZNK5dyld39AllImages29breadthFirstRecurseDependentsERNS_5ArrayIjEERKNS_11LoadedImageERbU13block_pointerFvS6_S7_E_block_invoke
____ZNK5dyld39AllImages29infoForNonCachedImageMappedAtEPKvU13block_pointerFvRKNS_11LoadedImageEhE_block_invoke
____ZNK5dyld39MachOFile10forDyldEnvEU13block_pointerFvPKcRbE_block_invoke
____ZNK5dyld39MachOFile14forEachSectionEU13block_pointerFvRKNS0_11SectionInfoEbRbE_block_invoke
____ZNK5dyld39MachOFile14forEachSegmentEU13block_pointerFvRKNS0_11SegmentInfoERbE_block_invoke
____ZNK5dyld39MachOFile14hasLoadCommandEj_block_invoke
____ZNK5dyld39MachOFile16builtForPlatformENS_8PlatformEb_block_invoke
____ZNK5dyld39MachOFile19getDylibInstallNameEPPKcPjS4__block_invoke
____ZNK5dyld39MachOFile20enforceCompatVersionEv_block_invoke
____ZNK5dyld39MachOFile20hasInterposingTuplesEv_block_invoke
____ZNK5dyld39MachOFile21forEachDependentDylibEU13block_pointerFvPKcbbbjjRbE_block_invoke
____ZNK5dyld39MachOFile24forEachSupportedPlatformEU13block_pointerFvNS_8PlatformEjjE_block_invoke
____ZNK5dyld39MachOFile33findFairPlayEncryptionLoadCommandEv_block_invoke
____ZNK5dyld39MachOFile7getUuidEPh_block_invoke
____ZNK5dyld39MachOFile7isMachOER11Diagnosticsy_block_invoke
____dyld_process_info_create_block_invoke
___assert_rtn
___block_descriptor_tmp
___block_descriptor_tmp
___block_descriptor_tmp
___block_descriptor_tmp
___block_descriptor_tmp
___block_descriptor_tmp
___block_descriptor_tmp
___block_descriptor_tmp
___block_descriptor_tmp
___block_descriptor_tmp
___block_descriptor_tmp
___block_descriptor_tmp
___block_descriptor_tmp
___block_descriptor_tmp
___block_descriptor_tmp
___block_descriptor_tmp
___block_descriptor_tmp.10
___block_descriptor_tmp.10
___block_descriptor_tmp.100
___block_descriptor_tmp.100
___block_descriptor_tmp.100
___block_descriptor_tmp.103
___block_descriptor_tmp.104
___block_descriptor_tmp.108
___block_descriptor_tmp.11
___block_descriptor_tmp.11
___block_descriptor_tmp.110
___block_descriptor_tmp.111
___block_descriptor_tmp.112
___block_descriptor_tmp.114
___block_descriptor_tmp.114
___block_descriptor_tmp.116
___block_descriptor_tmp.117
___block_descriptor_tmp.12
___block_descriptor_tmp.120
___block_descriptor_tmp.120
___block_descriptor_tmp.120
___block_descriptor_tmp.123
___block_descriptor_tmp.123
___block_descriptor_tmp.123
___block_descriptor_tmp.126
___block_descriptor_tmp.127
___block_descriptor_tmp.128
___block_descriptor_tmp.128
___block_descriptor_tmp.129
___block_descriptor_tmp.13
___block_descriptor_tmp.13
___block_descriptor_tmp.13
___block_descriptor_tmp.131
___block_descriptor_tmp.131
___block_descriptor_tmp.131
___block_descriptor_tmp.132
___block_descriptor_tmp.134
___block_descriptor_tmp.134
___block_descriptor_tmp.134
___block_descriptor_tmp.135
___block_descriptor_tmp.135
___block_descriptor_tmp.135
___block_descriptor_tmp.137
___block_descriptor_tmp.137
___block_descriptor_tmp.14
___block_descriptor_tmp.140
___block_descriptor_tmp.141
___block_descriptor_tmp.142
___block_descriptor_tmp.142
___block_descriptor_tmp.143
___block_descriptor_tmp.144
___block_descriptor_tmp.145
___block_descriptor_tmp.146
___block_descriptor_tmp.15
___block_descriptor_tmp.15
___block_descriptor_tmp.153
___block_descriptor_tmp.157
___block_descriptor_tmp.158
___block_descriptor_tmp.16
___block_descriptor_tmp.165
___block_descriptor_tmp.167
___block_descriptor_tmp.168
___block_descriptor_tmp.17
___block_descriptor_tmp.17
___block_descriptor_tmp.17
___block_descriptor_tmp.18
___block_descriptor_tmp.184
___block_descriptor_tmp.188
___block_descriptor_tmp.19
___block_descriptor_tmp.19
___block_descriptor_tmp.19
___block_descriptor_tmp.19
___block_descriptor_tmp.192
___block_descriptor_tmp.2
___block_descriptor_tmp.20
___block_descriptor_tmp.20
___block_descriptor_tmp.209
___block_descriptor_tmp.21
___block_descriptor_tmp.21
___block_descriptor_tmp.22
___block_descriptor_tmp.22
___block_descriptor_tmp.23
___block_descriptor_tmp.23
___block_descriptor_tmp.234
___block_descriptor_tmp.24
___block_descriptor_tmp.24
___block_descriptor_tmp.245
___block_descriptor_tmp.25
___block_descriptor_tmp.25
___block_descriptor_tmp.25
___block_descriptor_tmp.25
___block_descriptor_tmp.253
___block_descriptor_tmp.258
___block_descriptor_tmp.26
___block_descriptor_tmp.26
___block_descriptor_tmp.264
___block_descriptor_tmp.265
___block_descriptor_tmp.268
___block_descriptor_tmp.27
___block_descriptor_tmp.28
___block_descriptor_tmp.282
___block_descriptor_tmp.285
___block_descriptor_tmp.29
___block_descriptor_tmp.29
___block_descriptor_tmp.29
___block_descriptor_tmp.29
___block_descriptor_tmp.291
___block_descriptor_tmp.292
___block_descriptor_tmp.293
___block_descriptor_tmp.296
___block_descriptor_tmp.298
___block_descriptor_tmp.3
___block_descriptor_tmp.3
___block_descriptor_tmp.30
___block_descriptor_tmp.30
___block_descriptor_tmp.307
___block_descriptor_tmp.31
___block_descriptor_tmp.313
___block_descriptor_tmp.32
___block_descriptor_tmp.32
___block_descriptor_tmp.322
___block_descriptor_tmp.325
___block_descriptor_tmp.33
___block_descriptor_tmp.33
___block_descriptor_tmp.33
___block_descriptor_tmp.331
___block_descriptor_tmp.339
___block_descriptor_tmp.34
___block_descriptor_tmp.34
___block_descriptor_tmp.345
___block_descriptor_tmp.355
___block_descriptor_tmp.36
___block_descriptor_tmp.36
___block_descriptor_tmp.36
___block_descriptor_tmp.366
___block_descriptor_tmp.37
___block_descriptor_tmp.37
___block_descriptor_tmp.37
___block_descriptor_tmp.38
___block_descriptor_tmp.38
___block_descriptor_tmp.38
___block_descriptor_tmp.38
___block_descriptor_tmp.39
___block_descriptor_tmp.39
___block_descriptor_tmp.4
___block_descriptor_tmp.4
___block_descriptor_tmp.41
___block_descriptor_tmp.41
___block_descriptor_tmp.41
___block_descriptor_tmp.42
___block_descriptor_tmp.42
___block_descriptor_tmp.43
___block_descriptor_tmp.43
___block_descriptor_tmp.43
___block_descriptor_tmp.44
___block_descriptor_tmp.44
___block_descriptor_tmp.44
___block_descriptor_tmp.45
___block_descriptor_tmp.45
___block_descriptor_tmp.45
___block_descriptor_tmp.45
___block_descriptor_tmp.457
___block_descriptor_tmp.46
___block_descriptor_tmp.46
___block_descriptor_tmp.46
___block_descriptor_tmp.47
___block_descriptor_tmp.49
___block_descriptor_tmp.5
___block_descriptor_tmp.5
___block_descriptor_tmp.50
___block_descriptor_tmp.50
___block_descriptor_tmp.51
___block_descriptor_tmp.51
___block_descriptor_tmp.53
___block_descriptor_tmp.53
___block_descriptor_tmp.53
___block_descriptor_tmp.54
___block_descriptor_tmp.54
___block_descriptor_tmp.56
___block_descriptor_tmp.56
___block_descriptor_tmp.57
___block_descriptor_tmp.58
___block_descriptor_tmp.58
___block_descriptor_tmp.59
___block_descriptor_tmp.59
___block_descriptor_tmp.59
___block_descriptor_tmp.6
___block_descriptor_tmp.60
___block_descriptor_tmp.61
___block_descriptor_tmp.62
___block_descriptor_tmp.62
___block_descriptor_tmp.63
___block_descriptor_tmp.64
___block_descriptor_tmp.64
___block_descriptor_tmp.65
___block_descriptor_tmp.65
___block_descriptor_tmp.65
___block_descriptor_tmp.66
___block_descriptor_tmp.67
___block_descriptor_tmp.67
___block_descriptor_tmp.67
___block_descriptor_tmp.68
___block_descriptor_tmp.68
___block_descriptor_tmp.70
___block_descriptor_tmp.71
___block_descriptor_tmp.73
___block_descriptor_tmp.76
___block_descriptor_tmp.76
___block_descriptor_tmp.77
___block_descriptor_tmp.77
___block_descriptor_tmp.79
___block_descriptor_tmp.79
___block_descriptor_tmp.79
___block_descriptor_tmp.79
___block_descriptor_tmp.8
___block_descriptor_tmp.8
___block_descriptor_tmp.8
___block_descriptor_tmp.80
___block_descriptor_tmp.81
___block_descriptor_tmp.81
___block_descriptor_tmp.82
___block_descriptor_tmp.82
___block_descriptor_tmp.83
___block_descriptor_tmp.84
___block_descriptor_tmp.85
___block_descriptor_tmp.86
___block_descriptor_tmp.86
___block_descriptor_tmp.88
___block_descriptor_tmp.88
___block_descriptor_tmp.89
___block_descriptor_tmp.89
___block_descriptor_tmp.9
___block_descriptor_tmp.9
___block_descriptor_tmp.91
___block_descriptor_tmp.94
___block_descriptor_tmp.94
___block_descriptor_tmp.94
___block_descriptor_tmp.95
___block_descriptor_tmp.96
___block_descriptor_tmp.97
___block_descriptor_tmp.98
___block_descriptor_tmp.98
___block_descriptor_tmp.99
___block_literal_global
___block_literal_global
___block_literal_global
___block_literal_global
___block_literal_global
___block_literal_global
___block_literal_global.148
___block_literal_global.155
___block_literal_global.170
___block_literal_global.48
___block_literal_global.81
___copy_helper_block_8_32b
___copy_helper_block_8_32b40b48r
___copy_helper_block_8_32b40b48r56r64r72r80r
___copy_helper_block_8_32b40r
___copy_helper_block_8_32b40r48r
___copy_helper_block_8_32b40r48r56r
___copy_helper_block_8_32b40r48r56r64r72r80r
___copy_helper_block_8_32r
___copy_helper_block_8_32r40r
___copy_helper_block_8_32r40r48r
___copy_helper_block_8_32r40r48r56r
___copy_helper_block_8_32r40r48r56r64r
___destroy_helper_block_8_32b
___destroy_helper_block_8_32b40b48r
___destroy_helper_block_8_32b40b48r56r64r72r80r
___destroy_helper_block_8_32b40r
___destroy_helper_block_8_32b40r48r
___destroy_helper_block_8_32b40r48r56r
___destroy_helper_block_8_32b40r48r56r64r72r80r
___destroy_helper_block_8_32r
___destroy_helper_block_8_32r40r
___destroy_helper_block_8_32r40r48r
___destroy_helper_block_8_32r40r48r56r
___destroy_helper_block_8_32r40r48r56r64r
___progname
__dyld_all_twolevel_modules_prebound
__dyld_atfork_parent
__dyld_atfork_prepare
__dyld_bind_fully_image_containing_address
__dyld_find_unwind_sections
__dyld_for_each_objc_class
__dyld_for_each_objc_protocol
__dyld_fork_child
__dyld_func_lookup
__dyld_get_all_image_infos
__dyld_get_image_header
__dyld_get_image_header_containing_address
__dyld_get_image_name
__dyld_get_image_slide
__dyld_get_image_uuid
__dyld_get_image_vmaddr_slide
__dyld_get_objc_selector
__dyld_get_prog_image_header
__dyld_get_shared_cache_range
__dyld_get_shared_cache_uuid
__dyld_global_lock_held
__dyld_has_fix_for_radar
__dyld_image_containing_address
__dyld_image_count
__dyld_images_for_addresses
__dyld_initializer
__dyld_is_memory_immutable
__dyld_is_objc_constant
__dyld_is_objc_constant.cold.1
__dyld_launch_mode
__dyld_launched_prebound
__dyld_lookup_and_bind
__dyld_lookup_and_bind_fully
__dyld_lookup_and_bind_with_hint
__dyld_missing_symbol_abort
__dyld_objc_notify_register
__dyld_present
__dyld_process_info_create
__dyld_process_info_for_each_aot_image
__dyld_process_info_for_each_image
__dyld_process_info_for_each_segment
__dyld_process_info_get_aot_cache
__dyld_process_info_get_cache
__dyld_process_info_get_platform
__dyld_process_info_get_state
__dyld_process_info_notify
__dyld_process_info_notify_main
__dyld_process_info_notify_release
__dyld_process_info_notify_retain
__dyld_process_info_release
__dyld_process_info_retain
__dyld_register_driverkit_main
__dyld_register_for_bulk_image_loads
__dyld_register_for_image_loads
__dyld_register_func_for_add_image
__dyld_register_func_for_remove_image
__dyld_shared_cache_contains_path
__dyld_shared_cache_is_locally_built
__dyld_shared_cache_optimized
__dyld_shared_cache_real_path
__tlv_atexit
__tlv_bootstrap
__tlv_exit
_abort_report_np
_appleParams
_dladdr
_dlclose
_dlerror
_dlopen
_dlopen_audited
_dlopen_from
_dlopen_preflight
_dlsym
_dyldVersionNumber
_dyldVersionString
_dyld_dynamic_interpose
_dyld_get_active_platform
_dyld_get_base_platform
_dyld_get_image_versions
_dyld_get_min_os_version
_dyld_get_program_min_os_version
_dyld_get_program_sdk_version
_dyld_get_sdk_version
_dyld_has_inserted_or_interposing_libraries
_dyld_image_header_containing_address
_dyld_image_path_containing_address
_dyld_is_simulator_platform
_dyld_minos_at_least
_dyld_need_closure
_dyld_process_is_restricted
_dyld_program_minos_at_least
_dyld_program_sdk_at_least
_dyld_sdk_at_least
_dyld_shared_cache_file_path
_dyld_shared_cache_find_iterate_text
_dyld_shared_cache_iterate_text
_dyld_shared_cache_some_image_overridden
_environ
_gCRAnnotations
_gUseDyld3
_myDyldSection
_start
_tlv_allocate_and_initialize_for_key
_tlv_finalize
_tlv_finalize_list
_tlv_free
_tlv_get_addr
_tlv_initializer
_tlv_live_image_alloc_count
_tlv_live_image_lock
_tlv_live_image_used_count
_tlv_live_images
_tlv_load_notification
_tlv_terminators_key
dyld_stub_binder
