__Unwind_Backtrace
__Unwind_DeleteException
__Unwind_FindEnclosingFunction
__Unwind_Find_FDE
__Unwind_ForcedUnwind
__Unwind_GetCFA
__Unwind_GetDataRelBase
__Unwind_GetGR
__Unwind_GetIP
__Unwind_GetIPInfo
__Unwind_GetLanguageSpecificData
__Unwind_GetRegionStart
__Unwind_GetTextRelBase
__Unwind_RaiseException
__Unwind_Resume
__Unwind_Resume_or_Rethrow
__Unwind_SetGR
__Unwind_SetIP
__ZN9libunwind10CFI_ParserINS_17LocalAddressSpaceEE17parseInstructionsERS1_mmRKNS2_8CIE_InfoEmRPNS2_20PrologInfoStackEntryEiPNS2_10PrologInfoE
__ZN9libunwind10CFI_ParserINS_17LocalAddressSpaceEE20parseFDEInstructionsERS1_RKNS2_8FDE_InfoERKNS2_8CIE_InfoEmiPNS2_10PrologInfoE
__ZN9libunwind10CFI_ParserINS_17LocalAddressSpaceEE7findFDEERS1_mmjmPNS2_8FDE_InfoEPNS2_8CIE_InfoE
__ZN9libunwind10CFI_ParserINS_17LocalAddressSpaceEE8parseCIEERS1_mPNS2_8CIE_InfoE
__ZN9libunwind10CFI_ParserINS_17LocalAddressSpaceEE9decodeFDEERS1_mPNS2_8FDE_InfoEPNS2_8CIE_InfoE
__ZN9libunwind12UnwindCursorINS_17LocalAddressSpaceENS_15Registers_arm64EE11getFloatRegEi
__ZN9libunwind12UnwindCursorINS_17LocalAddressSpaceENS_15Registers_arm64EE11setFloatRegEid
__ZN9libunwind12UnwindCursorINS_17LocalAddressSpaceENS_15Registers_arm64EE13isSignalFrameEv
__ZN9libunwind12UnwindCursorINS_17LocalAddressSpaceENS_15Registers_arm64EE13validFloatRegEi
__ZN9libunwind12UnwindCursorINS_17LocalAddressSpaceENS_15Registers_arm64EE15getFunctionNameEPcmPm
__ZN9libunwind12UnwindCursorINS_17LocalAddressSpaceENS_15Registers_arm64EE15getRegisterNameEi
__ZN9libunwind12UnwindCursorINS_17LocalAddressSpaceENS_15Registers_arm64EE23getInfoFromDwarfSectionEmRKNS_18UnwindInfoSectionsEj
__ZN9libunwind12UnwindCursorINS_17LocalAddressSpaceENS_15Registers_arm64EE24setInfoBasedOnIPRegisterEb
__ZN9libunwind12UnwindCursorINS_17LocalAddressSpaceENS_15Registers_arm64EE4stepEv
__ZN9libunwind12UnwindCursorINS_17LocalAddressSpaceENS_15Registers_arm64EE6getRegEi
__ZN9libunwind12UnwindCursorINS_17LocalAddressSpaceENS_15Registers_arm64EE6jumptoEv
__ZN9libunwind12UnwindCursorINS_17LocalAddressSpaceENS_15Registers_arm64EE6setRegEim
__ZN9libunwind12UnwindCursorINS_17LocalAddressSpaceENS_15Registers_arm64EE7getInfoEP15unw_proc_info_t
__ZN9libunwind12UnwindCursorINS_17LocalAddressSpaceENS_15Registers_arm64EE8validRegEi
__ZN9libunwind12UnwindCursorINS_17LocalAddressSpaceENS_15Registers_arm64EED0Ev
__ZN9libunwind12UnwindCursorINS_17LocalAddressSpaceENS_15Registers_arm64EED1Ev
__ZN9libunwind13DwarfFDECacheINS_17LocalAddressSpaceEE10_bufferEndE
__ZN9libunwind13DwarfFDECacheINS_17LocalAddressSpaceEE11_bufferUsedE
__ZN9libunwind13DwarfFDECacheINS_17LocalAddressSpaceEE11removeAllInEm
__ZN9libunwind13DwarfFDECacheINS_17LocalAddressSpaceEE14_initialBufferE
__ZN9libunwind13DwarfFDECacheINS_17LocalAddressSpaceEE14dyldUnloadHookEPK11mach_headerl
__ZN9libunwind13DwarfFDECacheINS_17LocalAddressSpaceEE25_registeredForDyldUnloadsE
__ZN9libunwind13DwarfFDECacheINS_17LocalAddressSpaceEE3addEmmmm
__ZN9libunwind13DwarfFDECacheINS_17LocalAddressSpaceEE5_lockE
__ZN9libunwind13DwarfFDECacheINS_17LocalAddressSpaceEE7_bufferE
__ZN9libunwind13DwarfFDECacheINS_17LocalAddressSpaceEE7findFDEEmm
__ZN9libunwind15Registers_arm646jumptoEv
__ZN9libunwind17DwarfInstructionsINS_17LocalAddressSpaceENS_15Registers_arm64EE16getSavedRegisterERS1_RKS2_mRKNS_10CFI_ParserIS1_E16RegisterLocationE
__ZN9libunwind17DwarfInstructionsINS_17LocalAddressSpaceENS_15Registers_arm64EE18evaluateExpressionEmRS1_RKS2_m
__ZN9libunwind17LocalAddressSpace11getEncodedPERmmhmPm
__ZN9libunwind17LocalAddressSpace17sThisAddressSpaceE
__ZTVN9libunwind12UnwindCursorINS_17LocalAddressSpaceENS_15Registers_arm64EEE
___deregister_frame
___register_frame
___unw_add_dynamic_fde
___unw_getcontext
___unw_remove_dynamic_fde
_unw_get_fpreg
_unw_get_proc_info
_unw_get_proc_name
_unw_get_reg
_unw_getcontext
_unw_init_local
_unw_is_fpreg
_unw_is_signal_frame
_unw_iterate_dwarf_unwind_cache
_unw_local_addr_space
_unw_regname
_unw_resume
_unw_set_fpreg
_unw_set_reg
_unw_step
_unwind_phase2
_unwind_phase2_forced
