
locbund.o:
__ZN3icu5MutexC1EPNS_6UMutexE
__ZN3icu5MutexC2EPNS_6UMutexE
__ZN3icu5MutexD1Ev
__ZN3icu5MutexD2Ev
___clang_call_terminate
_u_locbund_close
_u_locbund_getNumberFormat
_u_locbund_init

sprintf.o:
_u_snprintf
_u_snprintf_u
_u_sprintf
_u_sprintf_u
_u_vsnprintf
_u_vsnprintf_u
_u_vsprintf
_u_vsprintf_u

sscanf.o:
_u_sscanf
_u_sscanf_u
_u_vsscanf
_u_vsscanf_u

ufile.o:
__ZN3icu14ConstChar16PtrC1EPKDs
__ZN3icu14ConstChar16PtrC2EPKDs
__ZN3icu14ConstChar16PtrD1Ev
__ZN3icu14ConstChar16PtrD2Ev
__ZNK3icu13UnicodeString14getShortLengthEv
__ZNK3icu13UnicodeString14hasShortLengthEv
__ZNK3icu13UnicodeString6lengthEv
_u_fadopt
_u_fclose
_u_feof
_u_fflush
_u_fgetConverter
_u_fgetNumberFormat
_u_fgetcodepage
_u_fgetfile
_u_fgetlocale
_u_finit
_u_fopen
_u_fopen_u
_u_frewind
_u_fsetcodepage
_u_fsetlocale
_u_fstropen

uprintf.o:
__ZN3icu13umtx_initOnceERNS_9UInitOnceEPFvvE
__ZN3icu16umtx_loadAcquireERNSt3__16atomicIiEE
__ZN3icu9UInitOnce5resetEv
_u_fprintf
_u_fprintf_u
_u_get_stdout
_u_printf
_u_printf_u
_u_vfprintf
_u_vfprintf_u

uscanf.o:
_u_fscanf
_u_fscanf_u
_u_vfscanf
_u_vfscanf_u

ustdio.o:
__Z14ufile_flush_ioP5UFILE
__Z20ufile_close_translitP5UFILE
__Z20ufile_flush_translitP5UFILE
__Z23ufile_fill_uchar_bufferP5UFILE
_u_fgetc
_u_fgetcx
_u_fgets
_u_file_read
_u_file_write
_u_file_write_flush
_u_fputc
_u_fputs
_u_fsettransliterator
_u_fungetc
_ufile_getch
_ufile_getch32

ustream.o:
__ZN3icu13UnicodeString14setShortLengthEi
__ZN3icu13UnicodeString6appendEDs
__ZN3icu13UnicodeString8truncateEi
__ZN3icu13UnicodeString9setLengthEi
__ZN3iculsERNSt3__113basic_ostreamIcNS0_11char_traitsIcEEEERKNS_13UnicodeStringE
__ZN3icursERNSt3__113basic_istreamIcNS0_11char_traitsIcEEEERNS_13UnicodeStringE
__ZNK3icu13UnicodeString14getShortLengthEv
__ZNK3icu13UnicodeString14hasShortLengthEv
__ZNK3icu13UnicodeString6lengthEv
__ZNK3icu13UnicodeString7isBogusEv
__ZNK3icu13UnicodeString9getBufferEv
__ZNSt3__111char_traitsIcE11eq_int_typeEii
__ZNSt3__111char_traitsIcE3eofEv
__ZNSt3__111char_traitsIcE6lengthEPKc
__ZNSt3__116__pad_and_outputIcNS_11char_traitsIcEEEENS_19ostreambuf_iteratorIT_T0_EES6_PKS4_S8_S8_RNS_8ios_baseES4_
__ZNSt3__124__put_character_sequenceIcNS_11char_traitsIcEEEERNS_13basic_ostreamIT_T0_EES7_PKS4_m
__ZNSt3__1lsINS_11char_traitsIcEEEERNS_13basic_ostreamIcT_EES6_PKc
___clang_call_terminate
