diff -ur ios14.2-symbols/usr/lib/libATCommandStudioDynamic.dylib.nm macosx11.2.3-symbols/usr/lib/libATCommandStudioDynamic.dylib.nm
--- ios14.2-symbols/usr/lib/libATCommandStudioDynamic.dylib.nm	2022-01-11 16:00:03.167440897 +0800
+++ macosx11.2.3-symbols/usr/lib/libATCommandStudioDynamic.dylib.nm	2022-01-11 16:00:32.878810612 +0800
@@ -2,12 +2,7 @@
 _ATCSThreadKill
 _ATCSThreadSpawn
 _DEFAULT_XPC_CLIENT_SERVICE
-__Z10systemtimev
-__Z11sGetWeakPtrv
-__Z17writeToCompletioniPKhm
-__Z19ATCSThreadStartStubPv
-__Z22strncasecmp_terminatedPKcS0_j
-__Z8asStringN4QMux4NameE
+__ZGVN3ctu9SingletonINS_9LogServerEN4atcs9LogServerENS_23PthreadMutexGuardPolicyIS1_EEE9sInstanceE
 __ZN10ATCSLogger10fsInstanceE
 __ZN10ATCSLogger10logCommandE12ATCSLogGroupPKcS2_jPKNS_16CommandFormatterE
 __ZN10ATCSLogger11getInstanceEv
@@ -15,7 +10,6 @@
 __ZN10ATCSLogger16CommandFormatterD0Ev
 __ZN10ATCSLogger16CommandFormatterD1Ev
 __ZN10ATCSLogger16CommandFormatterD2Ev
-__ZN10ATCSLogger5faultE12ATCSLogGroupPKcz
 __ZN10ATCSLoggerC2Ev
 __ZN10ATCSLoggerD0Ev
 __ZN10ATCSLoggerD1Ev
@@ -72,8 +66,6 @@
 __ZN10QMIControlD0Ev
 __ZN10QMIControlD1Ev
 __ZN10QMIControlD2Ev
-__ZN10ReadBuffer10readFromFDEi
-__ZN10ReadBuffer7consumeEj
 __ZN11ATCSCounted6decRefEv
 __ZN11ATCSCounted6incRefEv
 __ZN11ATCSCountedC1Ev
@@ -114,7 +106,6 @@
 __ZN13QMIServiceMsg10encodeWordEPPct
 __ZN13QMIServiceMsg13createRequestEPKvt
 __ZN13QMIServiceMsg14setErrorValuesEv
-__ZN13QMIServiceMsg16createIndicationEPKvt
 __ZN13QMIServiceMsg17createFromRawDataEPKhth
 __ZN13QMIServiceMsg17createFromRawDataERKNSt3__16vectorIhNS0_9allocatorIhEEEEh
 __ZN13QMIServiceMsg6addTlvEP3Tlv
@@ -165,25 +156,6 @@
 __ZN15ATCSTimerDriverD0Ev
 __ZN15ATCSTimerDriverD1Ev
 __ZN15ATCSTimerDriverD2Ev
-__ZN16CallbacksHandler15getSendCallbackEt
-__ZN16CallbacksHandler20registerSendCallbackEtU13block_pointerFvtE
-__ZN16CallbacksHandler22deRegisterSendCallbackEt
-__ZN19ATCSRouterIPCDriver11handleErrorEP24mav_router_context_tag_t20mav_router_channel_tPKcPv
-__ZN19ATCSRouterIPCDriver13handleReceiveEP24mav_router_context_tag_t20mav_router_channel_tPvS3_
-__ZN19ATCSRouterIPCDriver15clearWriteReadyEP22ATCSDispatcherCallbackPv
-__ZN19ATCSRouterIPCDriver15resetErrorStateEv
-__ZN19ATCSRouterIPCDriver15setErrorHandlerENSt3__18functionIFvNS0_12basic_stringIcNS0_11char_traitsIcEENS0_9allocatorIcEEEEEEE
-__ZN19ATCSRouterIPCDriver16handleWriteReadyEP22ATCSDispatcherCallbackPv
-__ZN19ATCSRouterIPCDriver16setCallback_syncEP22ATCSDispatcherCallback20mav_router_channel_t
-__ZN19ATCSRouterIPCDriver18registerDispatcherEP22ATCSDispatcherCallbackPvRS2_
-__ZN19ATCSRouterIPCDriver20unregisterDispatcherEP22ATCSDispatcherCallbackRPv
-__ZN19ATCSRouterIPCDriver4initEv
-__ZN19ATCSRouterIPCDriver6createERKNS_10ParametersE
-__ZN19ATCSRouterIPCDriverC1ERKNS_10ParametersE
-__ZN19ATCSRouterIPCDriverC2ERKNS_10ParametersE
-__ZN19ATCSRouterIPCDriverD0Ev
-__ZN19ATCSRouterIPCDriverD1Ev
-__ZN19ATCSRouterIPCDriverD2Ev
 __ZN21ATCSThreadedIPCDriver10readWorkerEv
 __ZN21ATCSThreadedIPCDriver11writeWorkerEv
 __ZN21ATCSThreadedIPCDriver16readWorkerStaticEPv
@@ -203,25 +175,6 @@
 __ZN27ATCSFileDescriptorIPCDriverD0Ev
 __ZN27ATCSFileDescriptorIPCDriverD1Ev
 __ZN27ATCSFileDescriptorIPCDriverD2Ev
-__ZN34ATCSFileDescriptorIPCDriverPrivate10kickReaderEv
-__ZN34ATCSFileDescriptorIPCDriverPrivate10kickWriterEv
-__ZN34ATCSFileDescriptorIPCDriverPrivate12exitLowPowerEv
-__ZN34ATCSFileDescriptorIPCDriverPrivate13enterLowPowerEv
-__ZN34ATCSFileDescriptorIPCDriverPrivate15clearWriteReadyEP22ATCSDispatcherCallbackPv
-__ZN34ATCSFileDescriptorIPCDriverPrivate15setErrorHandlerEPN27ATCSFileDescriptorIPCDriver12ErrorHandlerE
-__ZN34ATCSFileDescriptorIPCDriverPrivate16handleWriteReadyEP22ATCSDispatcherCallbackPv
-__ZN34ATCSFileDescriptorIPCDriverPrivate18readWorkerMainLoopEN21ATCSThreadedIPCDriver11WhichWorkerE
-__ZN34ATCSFileDescriptorIPCDriverPrivate18registerDispatcherEP22ATCSDispatcherCallbackPvRS2_
-__ZN34ATCSFileDescriptorIPCDriverPrivate19reconfigureWithMaskEP6fd_set
-__ZN34ATCSFileDescriptorIPCDriverPrivate19writeWorkerMainLoopEN21ATCSThreadedIPCDriver11WhichWorkerE
-__ZN34ATCSFileDescriptorIPCDriverPrivate20unregisterDispatcherEP22ATCSDispatcherCallbackRPv
-__ZN34ATCSFileDescriptorIPCDriverPrivate22handleWriteReadyForAllEv
-__ZN34ATCSFileDescriptorIPCDriverPrivate30handleWriteReadyForAllInternalEb
-__ZN34ATCSFileDescriptorIPCDriverPrivateC1Ebjj
-__ZN34ATCSFileDescriptorIPCDriverPrivateC2Ebjj
-__ZN34ATCSFileDescriptorIPCDriverPrivateD0Ev
-__ZN34ATCSFileDescriptorIPCDriverPrivateD1Ev
-__ZN34ATCSFileDescriptorIPCDriverPrivateD2Ev
 __ZN3Tlv10getDWordAtEt
 __ZN3Tlv10getQWordAtEt
 __ZN3Tlv10putDWordAtEjt
@@ -277,34 +230,7 @@
 __ZN3TlvC2EhtPKv
 __ZN3TlvD1Ev
 __ZN3TlvD2Ev
-__ZN3ctl10parseFieldEPKhS1_RNS_17LinkLayerProtocolE
-__ZN3ctl10writeFieldEPhNS_17LinkLayerProtocolE
-__ZN3ctl12getFieldSizeENS_17LinkLayerProtocolE
-__ZN3ctl3tlv10parseFieldEPKhS2_RNS0_10AssignedIdE
-__ZN3ctl3tlv10parseFieldEPKhS2_RNS0_10DataFormatE
-__ZN3ctl3tlv10parseFieldEPKhS2_RNS0_11ServiceTypeE
-__ZN3ctl3tlv10parseFieldEPKhS2_RNS0_13IndicationSetE
-__ZN3ctl3tlv10parseFieldEPKhS2_RNS0_14PowerSaveStateE
-__ZN3ctl3tlv10parseFieldEPKhS2_RNS0_16IndicationSetExtE
-__ZN3ctl3tlv10parseFieldEPKhS2_RNS0_17LinkLayerProtocolE
-__ZN3ctl3tlv10parseFieldEPKhS2_RNS0_19PowerSaveDescriptorE
-__ZN3ctl3tlv10writeFieldEPhRKNS0_10AssignedIdE
-__ZN3ctl3tlv10writeFieldEPhRKNS0_10DataFormatE
-__ZN3ctl3tlv10writeFieldEPhRKNS0_11ServiceTypeE
-__ZN3ctl3tlv10writeFieldEPhRKNS0_13IndicationSetE
-__ZN3ctl3tlv10writeFieldEPhRKNS0_14PowerSaveStateE
-__ZN3ctl3tlv10writeFieldEPhRKNS0_16IndicationSetExtE
-__ZN3ctl3tlv10writeFieldEPhRKNS0_17LinkLayerProtocolE
-__ZN3ctl3tlv10writeFieldEPhRKNS0_19PowerSaveDescriptorE
-__ZN3ctl3tlv12getFieldSizeERKNS0_10AssignedIdE
-__ZN3ctl3tlv12getFieldSizeERKNS0_10DataFormatE
-__ZN3ctl3tlv12getFieldSizeERKNS0_11ServiceTypeE
-__ZN3ctl3tlv12getFieldSizeERKNS0_13IndicationSetE
-__ZN3ctl3tlv12getFieldSizeERKNS0_14PowerSaveStateE
-__ZN3ctl3tlv12getFieldSizeERKNS0_16IndicationSetExtE
-__ZN3ctl3tlv12getFieldSizeERKNS0_17LinkLayerProtocolE
-__ZN3ctl3tlv12getFieldSizeERKNS0_19PowerSaveDescriptorE
-__ZN3qmi10kClientSimE
+__ZN3ctu9SingletonINS_9LogServerEN4atcs9LogServerENS_23PthreadMutexGuardPolicyIS1_EEE9sInstanceE
 __ZN3qmi11ClientProxy14sendIndicationENSt3__16vectorIhNS1_9allocatorIhEEEE
 __ZN3qmi11ClientProxy16registerResponseEtNSt3__16vectorIhNS1_9allocatorIhEEEE
 __ZN3qmi11ClientProxy18deregisterResponseEt
@@ -326,6 +252,7 @@
 __ZN3qmi11ClientProxy5State18deregisterResponseEt
 __ZN3qmi11ClientProxy5State19handleResponse_syncENS_11buffer_viewEt
 __ZN3qmi11ClientProxy5State19sendIfPossible_syncEv
+__ZN3qmi11ClientProxy5State19updateTrackedConfigEN3ctu8LogLevelE
 __ZN3qmi11ClientProxy5State20checkIfLowPower_syncEv
 __ZN3qmi11ClientProxy5State20setDisconnected_syncEb
 __ZN3qmi11ClientProxy5State20triggerLowPower_syncERKN8dispatch5groupE
@@ -360,11 +287,6 @@
 __ZN3qmi11TransactionD2Ev
 __ZN3qmi11kClientNameE
 __ZN3qmi11kClientTxIdE
-__ZN3qmi12ClientRouter5resetEv
-__ZN3qmi12ClientRouter6removeENS_16SubscriptionTypeE
-__ZN3qmi12ClientRouter9addClientENS_16SubscriptionTypeENS_6ClientE
-__ZN3qmi12ClientRouterC1EP8os_log_s
-__ZN3qmi12ClientRouterC2EP8os_log_s
 __ZN3qmi12asLongStringENS_11ServiceTypeE
 __ZN3qmi13asShortStringENS_11ServiceTypeE
 __ZN3qmi13kClientStatusE
@@ -455,29 +377,10 @@
 __ZN3qmi20kClientRawHeaderSizeE
 __ZN3qmi20kClientSendTimeoutMsE
 __ZN3qmi20kClientSetIndWakeSetE
-__ZN3qmi21QmiClientProxyAdapter12connect_syncEv
-__ZN3qmi21QmiClientProxyAdapter13handleTimeoutEtt
-__ZN3qmi21QmiClientProxyAdapter14enterPowerModeEP16dispatch_group_sNS_12PowerProfileE
-__ZN3qmi21QmiClientProxyAdapter14handleSentDataEt
-__ZN3qmi21QmiClientProxyAdapter15disconnect_syncEv
-__ZN3qmi21QmiClientProxyAdapter16invokeReset_syncERKNSt3__112basic_stringIcNS1_11char_traitsIcEENS1_9allocatorIcEEEE
-__ZN3qmi21QmiClientProxyAdapter16notifyRegisteredEv
-__ZN3qmi21QmiClientProxyAdapter18handleReceivedDataEtNS_11buffer_viewE
-__ZN3qmi21QmiClientProxyAdapter18revokeRegistrationEv
-__ZN3qmi21QmiClientProxyAdapter19setMaxLogBytes_syncEj
-__ZN3qmi21QmiClientProxyAdapter19updateLogLevel_syncEN3ctu8LogLevelE
-__ZN3qmi21QmiClientProxyAdapter21notifyRegisterFailureENS_5ErrorE
-__ZN3qmi21QmiClientProxyAdapter24handleReceivedIndicationENS_11buffer_viewE
-__ZN3qmi21QmiClientProxyAdapter4joinEP16dispatch_group_s
-__ZN3qmi21QmiClientProxyAdapter5flushEP16dispatch_group_s
-__ZN3qmi21QmiClientProxyAdapter9send_syncERKNSt3__110shared_ptrINS_17SerializedMessageEEE
-__ZN3qmi21QmiClientProxyAdapterC1ERK4QMuxRKNSt3__112basic_stringIcNS4_11char_traitsIcEENS4_9allocatorIcEEEENS_11ServiceTypeE
-__ZN3qmi21QmiClientProxyAdapterC2ERK4QMuxRKNSt3__112basic_stringIcNS4_11char_traitsIcEENS4_9allocatorIcEEEENS_11ServiceTypeE
 __ZN3qmi21kClientRemoteLogBytesE
 __ZN3qmi21kClientRemoteLogLevelE
 __ZN3qmi21serviceTypeFromStringERKNSt3__112basic_stringIcNS0_11char_traitsIcEENS0_9allocatorIcEEEE
 __ZN3qmi23kClientOldInternalErrorE
-__ZN3qmi25create_client_proxy_stateER4QMuxRKNSt3__112basic_stringIcNS2_11char_traitsIcEENS2_9allocatorIcEEEENS_11ServiceTypeE
 __ZN3qmi25kClientLowPowerExitNotifyE
 __ZN3qmi26kClientLowPowerEnterNotifyE
 __ZN3qmi6Client15createWithQueueERKNSt3__112basic_stringIcNS1_11char_traitsIcEENS1_9allocatorIcEEEENS_11ServiceTypeEN8dispatch5queueES9_NS1_8weak_ptrIvEE
@@ -515,6 +418,7 @@
 __ZN3qmi6Client5StateC1ERKNSt3__112basic_stringIcNS2_11char_traitsIcEENS2_9allocatorIcEEEESA_NS_11ServiceTypeERKN8dispatch5queueEONS2_8weak_ptrIvEE
 __ZN3qmi6Client5StateC2ERKNSt3__112basic_stringIcNS2_11char_traitsIcEENS2_9allocatorIcEEEESA_NS_11ServiceTypeERKN8dispatch5queueE
 __ZN3qmi6Client5StateC2ERKNSt3__112basic_stringIcNS2_11char_traitsIcEENS2_9allocatorIcEEEESA_NS_11ServiceTypeERKN8dispatch5queueEONS2_8weak_ptrIvEE
+__ZN3qmi6Client5StateD0Ev
 __ZN3qmi6Client5StateD1Ev
 __ZN3qmi6Client5StateD2Ev
 __ZN3qmi6Client6createERKNSt3__112basic_stringIcNS1_11char_traitsIcEENS1_9allocatorIcEEEENS_11ServiceTypeEN8dispatch5queueES9_N3xpc10connectionE
@@ -537,6 +441,7 @@
 __ZN3qmi6Server5State9init_syncERKN3xpc10connectionE
 __ZN3qmi6Server5StateC1Ev
 __ZN3qmi6Server5StateC2Ev
+__ZN3qmi6Server5StateD0Ev
 __ZN3qmi6Server5StateD1Ev
 __ZN3qmi6Server5StateD2Ev
 __ZN3qmi6Server6createERKN3xpc10connectionE
@@ -544,38 +449,7 @@
 __ZN3qmi6ServerC2ERKN3xpc10connectionE
 __ZN3qmi6ServerD1Ev
 __ZN3qmi6ServerD2Ev
-__ZN3qmi8asStringENS_11ClientProxy5State9QMuxStateE
 __ZN3qmi8asStringENS_12ClientStatusE
-__ZN3qmi8asStringENS_16SubscriptionTypeE
-__ZN3qmi8asStringENS_6Client5EventE
-__ZN3tlv17TlvParseExceptionC1Eml
-__ZN3tlv17TlvParseExceptionC2Eml
-__ZN3tlv17throwIfNotAlignedEPKhS1_m
-__ZN3tlv21throwIfNotEnoughBytesEPKhS1_m
-__ZN3tlv4sizeIN3ctl3tlv10AssignedIdEEEmRKT_
-__ZN3tlv4sizeIN3ctl3tlv10DataFormatEEEmRKT_
-__ZN3tlv4sizeIN3ctl3tlv11ServiceTypeEEEmRKT_
-__ZN3tlv4sizeIN3ctl3tlv13IndicationSetEEEmRKT_
-__ZN3tlv4sizeIN3ctl3tlv14PowerSaveStateEEEmRKT_
-__ZN3tlv4sizeIN3ctl3tlv16IndicationSetExtEEEmRKT_
-__ZN3tlv4sizeIN3ctl3tlv17LinkLayerProtocolEEEmRKT_
-__ZN3tlv4sizeIN3ctl3tlv19PowerSaveDescriptorEEEmRKT_
-__ZN3tlv6parseVIN3ctl3tlv10AssignedIdEEET_RPKhi
-__ZN3tlv6parseVIN3ctl3tlv10DataFormatEEET_RPKhi
-__ZN3tlv6parseVIN3ctl3tlv11ServiceTypeEEET_RPKhi
-__ZN3tlv6parseVIN3ctl3tlv13IndicationSetEEET_RPKhi
-__ZN3tlv6parseVIN3ctl3tlv14PowerSaveStateEEET_RPKhi
-__ZN3tlv6parseVIN3ctl3tlv16IndicationSetExtEEET_RPKhi
-__ZN3tlv6parseVIN3ctl3tlv17LinkLayerProtocolEEET_RPKhi
-__ZN3tlv6parseVIN3ctl3tlv19PowerSaveDescriptorEEET_RPKhi
-__ZN3tlv6writeVIN3ctl3tlv10AssignedIdEEEvRPhRKT_
-__ZN3tlv6writeVIN3ctl3tlv10DataFormatEEEvRPhRKT_
-__ZN3tlv6writeVIN3ctl3tlv11ServiceTypeEEEvRPhRKT_
-__ZN3tlv6writeVIN3ctl3tlv13IndicationSetEEEvRPhRKT_
-__ZN3tlv6writeVIN3ctl3tlv14PowerSaveStateEEEvRPhRKT_
-__ZN3tlv6writeVIN3ctl3tlv16IndicationSetExtEEEvRPhRKT_
-__ZN3tlv6writeVIN3ctl3tlv17LinkLayerProtocolEEEvRPhRKT_
-__ZN3tlv6writeVIN3ctl3tlv19PowerSaveDescriptorEEEvRPhRKT_
 __ZN4QMux11invokeResetERKNSt3__112basic_stringIcNS0_11char_traitsIcEENS0_9allocatorIcEEEEb
 __ZN4QMux11joinControlEv
 __ZN4QMux14enterPowerModeEP16dispatch_group_sN3qmi12PowerProfileE
@@ -689,7 +563,6 @@
 __ZNK13QMuxQueueItem9serializeEPvtt
 __ZNK14_ATCSException4whatEv
 __ZNK15ATCSTimerDriver14getCurrentTimeEv
-__ZNK34ATCSFileDescriptorIPCDriverPrivate14getPrivateDataEP22ATCSDispatcherCallback
 __ZNK3Tlv6Reader10getDWordAtEt
 __ZNK3Tlv6Reader10getFloatAtEt
 __ZNK3Tlv6Reader10getQWordAtEt
@@ -707,16 +580,6 @@
 __ZNK3qmi11ClientProxy7getNameEv
 __ZNK3qmi11ClientProxy7isValidEv
 __ZNK3qmi11ClientProxycvbEv
-__ZNK3qmi12ClientRouter10setHandlerENS_6Client5EventEDn
-__ZNK3qmi12ClientRouter10setHandlerENS_6Client5EventENSt3__18functionIFvNS_16SubscriptionTypeEEEE
-__ZNK3qmi12ClientRouter10setHandlerENS_6Client5EventENSt3__18functionIFvNS_16SubscriptionTypeEN3xpc6objectEEEE
-__ZNK3qmi12ClientRouter10setHandlerENS_6Client5EventENSt3__18functionIFvNS_16SubscriptionTypeEN8dispatch5groupEEEE
-__ZNK3qmi12ClientRouter16setIndShouldWakeEtb
-__ZNK3qmi12ClientRouter21setIndHandlerInternalEtNSt3__18functionIFvNS_16SubscriptionTypeERK13QMIServiceMsgEEE
-__ZNK3qmi12ClientRouter3getENS_16SubscriptionTypeE
-__ZNK3qmi12ClientRouter3hasENS_16SubscriptionTypeE
-__ZNK3qmi12ClientRouter4stopENS_16SubscriptionTypeE
-__ZNK3qmi12ClientRouter5startENS_16SubscriptionTypeE
 __ZNK3qmi16TransactionQueue14dumpState_syncEv
 __ZNK3qmi16TransactionQueue22debugGetQueueSize_syncEv
 __ZNK3qmi16TransactionQueue23getSendWindowWidth_syncEv
@@ -727,10 +590,6 @@
 __ZNK3qmi16TransactionQueue5State23getSendWindowWidth_syncEv
 __ZNK3qmi18QMuxServerAccepter13getAllClientsEv
 __ZNK3qmi18QMuxServerAccepter5State13getAllClientsEv
-__ZNK3qmi21QmiClientProxyAdapter16getClientId_syncEv
-__ZNK3qmi21QmiClientProxyAdapter18appendPowerModeSetERNSt3__13setItNS1_4lessItEENS1_9allocatorItEEEENS_12PowerProfileE
-__ZNK3qmi21QmiClientProxyAdapter7simSlotEv
-__ZNK3qmi21QmiClientProxyAdapter9dumpStateEv
 __ZNK3qmi6Client10getSvcTypeEv
 __ZNK3qmi6Client10setHandlerENS0_5EventEU13block_pointerFvP16dispatch_group_sE
 __ZNK3qmi6Client10setHandlerENS0_5EventEU13block_pointerFvPvE
@@ -777,15 +636,14 @@
 __ZTI13QMIServiceMsg
 __ZTI14_ATCSException
 __ZTI15ATCSTimerDriver
-__ZTI19ATCSRouterIPCDriver
 __ZTI21ATCSThreadedIPCDriver
 __ZTI27ATCSFileDescriptorIPCDriver
-__ZTI34ATCSFileDescriptorIPCDriverPrivate
 __ZTIN10ATCSLogger16CommandFormatterE
 __ZTIN12ATCSDPCQueue8CallbackE
 __ZTIN3qmi11ClientProxy5StateE
 __ZTIN3qmi18QMuxServerAccepter5StateE
-__ZTIN3qmi21QmiClientProxyAdapterE
+__ZTIN3qmi6Client5StateE
+__ZTIN3qmi6Server5StateE
 __ZTIN4QMux5StateE
 __ZTS10ATCSLogger
 __ZTS10QMIControl
@@ -794,15 +652,14 @@
 __ZTS13QMIServiceMsg
 __ZTS14_ATCSException
 __ZTS15ATCSTimerDriver
-__ZTS19ATCSRouterIPCDriver
 __ZTS21ATCSThreadedIPCDriver
 __ZTS27ATCSFileDescriptorIPCDriver
-__ZTS34ATCSFileDescriptorIPCDriverPrivate
 __ZTSN10ATCSLogger16CommandFormatterE
 __ZTSN12ATCSDPCQueue8CallbackE
 __ZTSN3qmi11ClientProxy5StateE
 __ZTSN3qmi18QMuxServerAccepter5StateE
-__ZTSN3qmi21QmiClientProxyAdapterE
+__ZTSN3qmi6Client5StateE
+__ZTSN3qmi6Server5StateE
 __ZTSN4QMux5StateE
 __ZTV10ATCSLogger
 __ZTV10QMIControl
@@ -811,29 +668,17 @@
 __ZTV13QMIServiceMsg
 __ZTV14_ATCSException
 __ZTV15ATCSTimerDriver
-__ZTV19ATCSRouterIPCDriver
 __ZTV21ATCSThreadedIPCDriver
 __ZTV27ATCSFileDescriptorIPCDriver
-__ZTV34ATCSFileDescriptorIPCDriverPrivate
 __ZTVN10ATCSLogger16CommandFormatterE
 __ZTVN12ATCSDPCQueue8CallbackE
 __ZTVN3qmi11ClientProxy5StateE
 __ZTVN3qmi18QMuxServerAccepter5StateE
-__ZTVN3qmi21QmiClientProxyAdapterE
+__ZTVN3qmi6Client5StateE
+__ZTVN3qmi6Server5StateE
 __ZTVN4QMux5StateE
-__ZThn240_N3qmi21QmiClientProxyAdapter13handleTimeoutEtt
-__ZThn240_N3qmi21QmiClientProxyAdapter14enterPowerModeEP16dispatch_group_sNS_12PowerProfileE
-__ZThn240_N3qmi21QmiClientProxyAdapter14handleSentDataEt
-__ZThn240_N3qmi21QmiClientProxyAdapter16notifyRegisteredEv
-__ZThn240_N3qmi21QmiClientProxyAdapter18handleReceivedDataEtNS_11buffer_viewE
-__ZThn240_N3qmi21QmiClientProxyAdapter18revokeRegistrationEv
-__ZThn240_N3qmi21QmiClientProxyAdapter21notifyRegisterFailureENS_5ErrorE
-__ZThn240_N3qmi21QmiClientProxyAdapter24handleReceivedIndicationENS_11buffer_viewE
-__ZThn240_N3qmi21QmiClientProxyAdapter4joinEP16dispatch_group_s
-__ZThn240_N3qmi21QmiClientProxyAdapter5flushEP16dispatch_group_s
-__ZThn240_NK3qmi21QmiClientProxyAdapter18appendPowerModeSetERNSt3__13setItNS1_4lessItEENS1_9allocatorItEEEENS_12PowerProfileE
-__ZThn240_NK3qmi21QmiClientProxyAdapter7simSlotEv
-__ZThn240_NK3qmi21QmiClientProxyAdapter9dumpStateEv
+__ZThn104_N3qmi18QMuxServerAccepter5State6acceptERKN3xpc4dictERKN8dispatch5queueE
+__ZThn104_N3qmi18QMuxServerAccepter5StateD0Ev
+__ZThn104_N3qmi18QMuxServerAccepter5StateD1Ev
 _asString
 _getMessageIdFromBuffer
-_strcasecmp
Only in ios14.2-symbols/usr/lib: libAWDProtobufBluetooth.dylib.nm
Only in ios14.2-symbols/usr/lib: libAWDProtobufFacetime.dylib.nm
Only in ios14.2-symbols/usr/lib: libAWDProtobufFacetimeiMessage.dylib.nm
Only in ios14.2-symbols/usr/lib: libAWDProtobufGCK.dylib.nm
Only in ios14.2-symbols/usr/lib: libAWDProtobufLocation.dylib.nm
Only in ios14.2-symbols/usr/lib: libAWDSupport.dylib.nm
Only in ios14.2-symbols/usr/lib: libAWDSupportFramework.dylib.nm
Only in ios14.2-symbols/usr/lib: libAXSpeechManager.dylib.nm
