diff -ur ios14.2-symbols/usr/lib/libAudioToolboxUtility.dylib.nm macosx11.2.3-symbols/usr/lib/libAudioToolboxUtility.dylib.nm
--- ios14.2-symbols/usr/lib/libAudioToolboxUtility.dylib.nm	2022-01-11 16:00:03.359811153 +0800
+++ macosx11.2.3-symbols/usr/lib/libAudioToolboxUtility.dylib.nm	2022-01-11 16:00:32.968647939 +0800
@@ -331,6 +331,29 @@
 __ZN16BaseOpaqueObjectD0Ev
 __ZN16BaseOpaqueObjectD1Ev
 __ZN16BaseOpaqueObjectD2Ev
+__ZN16CAAppWorkArounds10CSCheckFixEPK10__CFString
+__ZN16CAAppWorkArounds16PrimeWorkaroundsEv
+__ZN16CAAppWorkArounds18CheckFixForOlderSTEv
+__ZN16CAAppWorkArounds18PrimeUIWorkaroundsEv
+__ZN16CAAppWorkArounds19CheckFixForOlderFCPEv
+__ZN16CAAppWorkArounds22Needs3310485WorkAroundEv
+__ZN16CAAppWorkArounds22Needs3385081WorkAroundEv
+__ZN16CAAppWorkArounds22Needs3413239WorkAroundEv
+__ZN16CAAppWorkArounds22Needs3416629WorkAroundEv
+__ZN16CAAppWorkArounds22Needs3853060WorkAroundEv
+__ZN16CAAppWorkArounds22Needs3908162WorkAroundEv
+__ZN16CAAppWorkArounds22Needs4906044WorkAroundEv
+__ZN16CAAppWorkArounds22Needs5360194WorkAroundEv
+__ZN16CAAppWorkArounds22Needs5403797WorkAroundEv
+__ZN16CAAppWorkArounds22Needs6164787WorkAroundEv
+__ZN16CAAppWorkArounds22Needs6442415WorkAroundEv
+__ZN16CAAppWorkArounds22Needs6513185WorkaroundEv
+__ZN16CAAppWorkArounds22Needs6858274WorkAroundEv
+__ZN16CAAppWorkArounds22Needs7025278WorkaroundEv
+__ZN16CAAppWorkArounds22Neesd6552759WorkAroundEv
+__ZN16CAAppWorkArounds23Needs32137910WorkaroundEv
+__ZN16CAAppWorkArounds24Needs6860184UIWorkaroundEv
+__ZN16CAAppWorkArounds24NeedsNoPluginsWorkaroundEv
 __ZN17PlatformUtilities11ProcessNameEi
 __ZN17PlatformUtilities11processNameEi
 __ZN17PlatformUtilities25CopyHardwareModelFullNameEv
@@ -394,37 +417,7 @@
 __ZN21CAFileSystemUtilities21CreateDirectoryAtPathERKNSt3__112basic_stringIcNS0_11char_traitsIcEENS0_9allocatorIcEEEEbPK14__CFDictionaryPP9__CFError
 __ZN21CAFileSystemUtilities24GetTemporarySubDirectoryEPKc
 __ZN21CAFileSystemUtilities25ContentsOfDirectoryAtPathERKNSt3__112basic_stringIcNS0_11char_traitsIcEENS0_9allocatorIcEEEEPP9__CFError
-__ZN21PlatformUtilities_iOS13ProductHasAOPEv
-__ZN21PlatformUtilities_iOS13ProductIsiPadEv
-__ZN21PlatformUtilities_iOS13ProductIsiPodEv
-__ZN21PlatformUtilities_iOS14GetProductTypeEv
-__ZN21PlatformUtilities_iOS14IsCarrierBuildEv
-__ZN21PlatformUtilities_iOS15IsInternalBuildEv
-__ZN21PlatformUtilities_iOS15ProductIsAPhoneEv
-__ZN21PlatformUtilities_iOS16ProductIsAppleTVEv
-__ZN21PlatformUtilities_iOS18GetBuiltInMicCountEv
-__ZN21PlatformUtilities_iOS18ProductHasBasebandEv
-__ZN21PlatformUtilities_iOS19ProductIsAppleWatchEv
-__ZN21PlatformUtilities_iOS19ProductIsMuseDeviceEv
-__ZN21PlatformUtilities_iOS20ProductSupportsBrookEv
-__ZN21PlatformUtilities_iOS22ProductSupportsCarPlayEv
-__ZN21PlatformUtilities_iOS22ProductSupportsHapticsEv
-__ZN21PlatformUtilities_iOS23CopyProductAssignedNameEv
-__ZN21PlatformUtilities_iOS23ProductSupportsVibratorEv
-__ZN21PlatformUtilities_iOS24ProductSupportsAssistantEv
-__ZN21PlatformUtilities_iOS24ProductSupportsLivePhotoEv
 __ZN21PlatformUtilities_iOS25CopyProductTypeFilePrefixE14iOSProductType
-__ZN21PlatformUtilities_iOS25IsTelephonyCaptureAllowedE17CapturePreference
-__ZN21PlatformUtilities_iOS25ProductSupportsSiriSpeaksEv
-__ZN21PlatformUtilities_iOS26ProductSupportsSiriBargeInEv
-__ZN21PlatformUtilities_iOS26TrimHardwareModelShortNameEP10__CFString
-__ZN21PlatformUtilities_iOS30ProductSupportsStereoRecordingEv
-__ZN21PlatformUtilities_iOS31ProductSupportsPictureInPictureEv
-__ZN21PlatformUtilities_iOS31ProductSupportsTelephonyOverUSBEv
-__ZN21PlatformUtilities_iOS31ProductSupportsWirelessChargingEv
-__ZN21PlatformUtilities_iOS32ProductSupportsClosedLoopHapticsEv
-__ZN21PlatformUtilities_iOS8_eaJyFmOEv
-__ZN21PlatformUtilities_iOS9IsUIBuildEv
 __ZN21RamstadKernelFactoryD20ReleaseRamstadKernelEP14RamstadKernelD
 __ZN21RamstadKernelFactoryD22ReferenceRamstadKernelEiidb
 __ZN24CAStreamBasicDescription11ResetFormatER27AudioStreamBasicDescription
Only in ios14.2-symbols/usr/lib: libBBUpdaterDynamic.dylib.nm
Only in ios14.2-symbols/usr/lib: libBBUpdaterDynamic_stubs.dylib.nm
Only in ios14.2-symbols/usr/lib: libBKDM2.dylib.nm
Only in macosx11.2.3-symbols/usr/lib: libBSDPClient.A.dylib.nm
Only in ios14.2-symbols/usr/lib: libBasebandDiagnostic.dylib.nm
Only in ios14.2-symbols/usr/lib: libBasebandManager.dylib.nm
Only in ios14.2-symbols/usr/lib: libBasebandManagerICE.dylib.nm
Only in macosx11.2.3-symbols/usr/lib: libCheckFix.dylib.nm
Only in macosx11.2.3-symbols/usr/lib: libCoreStorage.dylib.nm
