diff -ur ios14.2-symbols/usr/lib/libTelephonyUtilDynamic.dylib.nm macosx11.2.3-symbols/usr/lib/libTelephonyUtilDynamic.dylib.nm
--- ios14.2-symbols/usr/lib/libTelephonyUtilDynamic.dylib.nm	2022-01-11 16:00:03.875914092 +0800
+++ macosx11.2.3-symbols/usr/lib/libTelephonyUtilDynamic.dylib.nm	2022-01-11 16:00:33.256867869 +0800
@@ -1,142 +1,38 @@
-_TelephonyBasebandWatchdogStart
-_TelephonyBasebandWatchdogStartWithStackshot
-_TelephonyBasebandWatchdogStop
+_TelephonyCapabilitiesAccessoryDetectionForSupported
+_TelephonyCapabilitiesAccessoryDetectionSupported
+_TelephonyCapabilitiesAccessoryTypeDetectionForASupported
+_TelephonyCapabilitiesAccessoryTypeDetectionForRSupported
+_TelephonyCapabilitiesAutoFilingSupported
 _TelephonyCapabilitiesAutomaticRadarFilingSupported
+_TelephonyCapabilitiesBBTraceVersion2Supported
+_TelephonyCapabilitiesBasebandStateControllerSupported
+_TelephonyCapabilitiesCTechDevice
+_TelephonyCapabilitiesDataServiceSupported
 _TelephonyCapabilitiesDebugTriggerStackshotOnSnapshot
+_TelephonyCapabilitiesFactoryCalibrationV2Supported
+_TelephonyCapabilitiesFilesystemSupported
+_TelephonyCapabilitiesGetCID
+_TelephonyCapabilitiesGetFPath
+_TelephonyCapabilitiesGetFPathSuffix
+_TelephonyCapabilitiesGetFPrefix
+_TelephonyCapabilitiesGetFilteringVersion
 _TelephonyCapabilitiesGetHardwareModel
-_TelephonyCapabilitiesRadioADPLSupported
-_TelephonyCapabilitiesRadioAccessoryDetectionForARTDSupported
-_TelephonyCapabilitiesRadioAccessoryDetectionSupported
-_TelephonyCapabilitiesRadioAccessoryTypeDetectionForARTDSupported
-_TelephonyCapabilitiesRadioAccessoryTypeDetectionForRFSupported
-_TelephonyCapabilitiesRadioAutomaticRadarFilingSupported
-_TelephonyCapabilitiesRadioBBTraceVersion2Supported
-_TelephonyCapabilitiesRadioC2kDevice
-_TelephonyCapabilitiesRadioCoreDumpCaptureTime
-_TelephonyCapabilitiesRadioCoreDumpCommandTimeout
-_TelephonyCapabilitiesRadioCoreDumpGetCoreDumpInterface
-_TelephonyCapabilitiesRadioCoreDumpGetPersonality
-_TelephonyCapabilitiesRadioCoreDumpSupportsGPIOSignalling
-_TelephonyCapabilitiesRadioCoredumpCommandTimeout
-_TelephonyCapabilitiesRadioCoredumpSupportsGPIOSignalling
-_TelephonyCapabilitiesRadioDIAGDiagVersion
-_TelephonyCapabilitiesRadioDIAGDrainTimerSupported
-_TelephonyCapabilitiesRadioDIAGGetBootedProductID
-_TelephonyCapabilitiesRadioDIAGGetBootedProductIDs
-_TelephonyCapabilitiesRadioDIAGGetInterfaceAfterBoot
-_TelephonyCapabilitiesRadioDIAGGetPreferredInterface
-_TelephonyCapabilitiesRadioDIAGGetPreferredUSBInterface
-_TelephonyCapabilitiesRadioDIAGGetSupportedInterfaces
-_TelephonyCapabilitiesRadioDIAGGetUSBLocationID
-_TelephonyCapabilitiesRadioDIAGSupportedDuringAPSleep
-_TelephonyCapabilitiesRadioDIAGSupportsBSPFlagSet
-_TelephonyCapabilitiesRadioDIAGSupportsBuffering
-_TelephonyCapabilitiesRadioDIAGSupportsCompression
-_TelephonyCapabilitiesRadioDIAGSupportsIntefaceSwitching
-_TelephonyCapabilitiesRadioDIAGSupportsMultipleMasks
-_TelephonyCapabilitiesRadioDIAGSupportsQDSS
-_TelephonyCapabilitiesRadioDIAGSupportsQShrink4
-_TelephonyCapabilitiesRadioDeviceMaterialSupported
-_TelephonyCapabilitiesRadioEFSEraseAdditionalPings
-_TelephonyCapabilitiesRadioEFSEraseAdditionalTimeout
-_TelephonyCapabilitiesRadioEFSEraseCommandTimeout
-_TelephonyCapabilitiesRadioEFSEraseRetrySupport
-_TelephonyCapabilitiesRadioEFSEraseWaitTime
-_TelephonyCapabilitiesRadioFactoryCalibrationV2Supported
-_TelephonyCapabilitiesRadioFusingCertIDFromPublicKeyHash
-_TelephonyCapabilitiesRadioFusingCertIDFromSerialNumber
-_TelephonyCapabilitiesRadioFusingCommandTimeout
-_TelephonyCapabilitiesRadioFusingDefaultCertID
-_TelephonyCapabilitiesRadioFusingReadMaskWriteSupported
-_TelephonyCapabilitiesRadioFusingSetModeTimeout
-_TelephonyCapabilitiesRadioFusingSupportsSingleStage
-_TelephonyCapabilitiesRadioGetChipID
-_TelephonyCapabilitiesRadioGetCoreDumpInterface
-_TelephonyCapabilitiesRadioGetFirmwarePath
-_TelephonyCapabilitiesRadioGetFirmwarePathSuffix
-_TelephonyCapabilitiesRadioGetFirmwarePrefix
-_TelephonyCapabilitiesRadioGetPacketFilteringVersion
-_TelephonyCapabilitiesRadioGetSafeResetTime
-_TelephonyCapabilitiesRadioGetStartupMode
-_TelephonyCapabilitiesRadioHSICGetBootedProductID
-_TelephonyCapabilitiesRadioHSICGetBootedProductIDs
-_TelephonyCapabilitiesRadioHSICGetDefaultRecoveryTimeoutSeconds
-_TelephonyCapabilitiesRadioHSICGetEnumerationErrorRetries
-_TelephonyCapabilitiesRadioHSICGetFlushTimers
-_TelephonyCapabilitiesRadioHSICGetIdleDisconnectTime
-_TelephonyCapabilitiesRadioHSICGetNumControlChannels
-_TelephonyCapabilitiesRadioHSICGetNumberResumeRetries
-_TelephonyCapabilitiesRadioHSICGetPortErrorRetries
-_TelephonyCapabilitiesRadioHSICGetRecoverNotRespondingRetries
-_TelephonyCapabilitiesRadioHSICGetSuspendTimers
-_TelephonyCapabilitiesRadioHSICGetVendorID
-_TelephonyCapabilitiesRadioHSICPowersaveEnabled
-_TelephonyCapabilitiesRadioHSICSupported
-_TelephonyCapabilitiesRadioHSICSupportsPDPStallNotifications
-_TelephonyCapabilitiesRadioIPCControlDataPrintSize
-_TelephonyCapabilitiesRadioIPCGetNumQMIInstances
-_TelephonyCapabilitiesRadioIPCGetQMIHSICInterfaceNum
-_TelephonyCapabilitiesRadioIPCGetTypeInternal
-_TelephonyCapabilitiesRadioIPCSupportsHSIC
-_TelephonyCapabilitiesRadioIPCSupportsIPMetadataTrailer
-_TelephonyCapabilitiesRadioIPCSupportsPCI
-_TelephonyCapabilitiesRadioIPCSupportsRouter
-_TelephonyCapabilitiesRadioIPCSupportsUART
-_TelephonyCapabilitiesRadioIPCSupportsUnifiedQmux
-_TelephonyCapabilitiesRadioIPCSupportsUnifiedQmuxV2
-_TelephonyCapabilitiesRadioLTECounterIndicationSupported
-_TelephonyCapabilitiesRadioLTESupported
-_TelephonyCapabilitiesRadioMESASupported
-_TelephonyCapabilitiesRadioPCIGetNumControlChannels
-_TelephonyCapabilitiesRadioPCISupported
-_TelephonyCapabilitiesRadioProgrammerCommandTimeout
-_TelephonyCapabilitiesRadioProgrammerConnectTimeout
-_TelephonyCapabilitiesRadioProgrammerConnectTries
-_TelephonyCapabilitiesRadioProgrammerProductID
-_TelephonyCapabilitiesRadioRemoteFilesystemSupported
-_TelephonyCapabilitiesRadioSupportsBasebandStateController
-_TelephonyCapabilitiesRadioSupportsDataService
-_TelephonyCapabilitiesRadioSupportsFlashless
-_TelephonyCapabilitiesRadioSupportsGetWakeReasonV2
+_TelephonyCapabilitiesGetResetTime
+_TelephonyCapabilitiesGetStartupMode
+_TelephonyCapabilitiesGetWakeReasonV2Supported
+_TelephonyCapabilitiesLCounterIndicationSupported
+_TelephonyCapabilitiesLTechupported
+_TelephonyCapabilitiesMSupported
+_TelephonyCapabilitiesRadioDMSupported
+_TelephonyCapabilitiesRadioGetQMuxPendingRequestsLimit
 _TelephonyCapabilitiesRadioSupportsMultiClientAWD
-_TelephonyCapabilitiesRadioSupportsSDIReset
-_TelephonyCapabilitiesRadioTxPowerAntennaFreeSpaceConfigSupported
-_TelephonyCapabilitiesRadioTxPowerAudioJackReportSupported
-_TelephonyCapabilitiesRadioTxPowerAudioSpeakerSupported
-_TelephonyCapabilitiesRadioTxPowerConfigSupported
-_TelephonyCapabilitiesRadioTxPowerControlInputSupported
-_TelephonyCapabilitiesRadioTxPowerDelayProximityTimeoutResetSupported
-_TelephonyCapabilitiesRadioTxPowerFaceIDSupported
-_TelephonyCapabilitiesRadioTxPowerHandDetectionSupported
-_TelephonyCapabilitiesRadioTxPowerKeyboardSupported
-_TelephonyCapabilitiesRadioTxPowerLTEBandsV2
-_TelephonyCapabilitiesRadioTxPowerMaxPowerConfig
-_TelephonyCapabilitiesRadioTxPowerMotionAlwaysSupported
-_TelephonyCapabilitiesRadioTxPowerMotionSupported
-_TelephonyCapabilitiesRadioTxPowerPPMSupported
-_TelephonyCapabilitiesRadioTxPowerPowerChargerDesense
-_TelephonyCapabilitiesRadioTxPowerPowerSourceDetectionSupported
-_TelephonyCapabilitiesRadioTxPowerProxPowerConfig
-_TelephonyCapabilitiesRadioTxPowerProxSensorMultiStepSupported
-_TelephonyCapabilitiesRadioTxPowerProxSensorSupported
-_TelephonyCapabilitiesRadioTxPowerRFCalCLTMSupported
-_TelephonyCapabilitiesRadioTxPowerTechConfig
-_TelephonyCapabilitiesRadioTxPowerTimeoutConfig
-_TelephonyCapabilitiesRadioTxPowerUnsupportedPowerConfig
-_TelephonyCapabilitiesRadioTxPowerVideoAntennaSwitingSupported
-_TelephonyCapabilitiesRadioTxPowerWristDetection
-_TelephonyCapabilitiesRadioUARTFailureUnexpectedSeqNum
-_TelephonyCapabilitiesRadioUARTGetAwakePreambleBytes
-_TelephonyCapabilitiesRadioUARTGetDesiredBaudRate
-_TelephonyCapabilitiesRadioUARTGetDeviceWakeTimeOnEngage
-_TelephonyCapabilitiesRadioUARTGetInactivityTimer
-_TelephonyCapabilitiesRadioUARTQMISupported
-_TelephonyCapabilitiesRadioUARTReliableProtocolSupported
-_TelephonyCapabilitiesRadioUARTReliableRetryLimit
-_TelephonyCapabilitiesRadioUMTSSupported
+_TelephonyCapabilitiesRadioSupportsQMuxSendWindow
+_TelephonyCapabilitiesSDIResetSupported
 _TelephonyCapabilitiesSetHardwareModel
 _TelephonyCapabilitiesSetHardwareModelFromString
 _TelephonyCapabilitiesSetHardwareModelFromTelephonyProduct
+_TelephonyCapabilitiesSupportsFL
+_TelephonyCapabilitiesUTechSupported
 _TelephonyRadiosDetermineRadio
 _TelephonyRadiosGetHardwareConfig
 _TelephonyRadiosGetProduct
@@ -150,11 +46,6 @@
 _TelephonyUtilEncodeHex
 _TelephonyUtilGetSystemTime
 _TelephonyUtilHexToBin
-_TelephonyUtilIsCarrierBuild
-_TelephonyUtilIsDesenseBuild
-_TelephonyUtilIsInternalBuild
-_TelephonyUtilIsRestoreOS
-_TelephonyUtilIsVendorBuild
 _TelephonyUtilLogBinaryToBuffer
 _TelephonyUtilLogGetBufferSize
 _TelephonyUtilParseHardwareModel
@@ -174,19 +65,10 @@
 _TelephonyUtilRunCommandExt
 _TelephonyUtilStrlcpy
 _TelephonyUtilSystemMachTime
-_TelephonyUtilTraceAllowed
-_TelephonyUtilTransportCreateWithFD
-_TelephonyUtilTransportCreateWithFile
-_TelephonyUtilTransportCreateWithUARTTimeout
 _TelephonyUtilTransportFree
-_TelephonyUtilTransportFreeFD
-_TelephonyUtilTriggerNMI
 _TelephonyUtilUnblockableReadToCompletionWithTimeout
 _TelephonyUtilUnblockableReadWithTimeout
-_TelephonyUtilWriteStackshot
-_TelephonyUtilWriteStackshotWithExcCode
 _TelephonyUtilWriteToCompletion
-_TeleponyCapabilitiesRadioHSICPowersaveEnabled
 __TelephonyCapabilitiesRadioPreferencesBasebandMaximumBootupTime
 __TelephonyCapabilitiesRadioPreferencesBasebandOemProductID
 __TelephonyCapabilitiesRadioPreferencesBasebandPowercycleDelay
@@ -223,7 +105,29 @@
 __TeleponyCapabilitiesRadioPreferencesIPCControlDataPrintSize
 __TeleponyCapabilitiesRadioPreferencesUARTFailureUnexpectedSeqNum
 __TeleponyCapabilitiesRadioPreferencesUARTSupportsQMI
+__Z21TUTestTransportCreateP26TelephonyUtilTransport_tagPK29TUTestTransportParameters_tag
+__Z26TUTestTransportAddReadDataP26TelephonyUtilTransport_tagRKNSt3__112basic_stringIcNS1_11char_traitsIcEENS1_9allocatorIcEEEE
+__Z26TUTestTransportGetReadDataP26TelephonyUtilTransport_tag
+__Z27TUTestTransportGetWriteDataP26TelephonyUtilTransport_tag
+__Z29TUTestTransportParametersInitP29TUTestTransportParameters_tag
+__Z29TUTestTransportSetReadTimeoutP26TelephonyUtilTransport_tag
 __Z45TelephonyCapabilitiesRadioMiscGetFirmwarePathv
+__ZN16MockTimerService11advanceTimeENSt3__16chrono8durationIxNS0_5ratioILl1ELl1000000EEEEE
+__ZN16MockTimerService14popTimersFiredEv
+__ZN16MockTimerService17scheduleAfterImplENSt3__112basic_stringIcNS0_11char_traitsIcEENS0_9allocatorIcEEEENS0_5tupleIJN3ctu8TimeTypeENS0_6chrono8durationIxNS0_5ratioILl1ELl1000000EEEEEEEEN8dispatch5queueENSG_5blockIU13block_pointerFvvEEE
+__ZN16MockTimerService17scheduleAfterImplENSt3__112basic_stringIcNS0_11char_traitsIcEENS0_9allocatorIcEEEENS0_5tupleIJN3ctu8TimeTypeENS0_6chrono8durationIxNS0_5ratioILl1ELl1000000EEEEEEEENS0_8functionIFvvEEE
+__ZN16MockTimerService22createOneShotTimerImplENSt3__112basic_stringIcNS0_11char_traitsIcEENS0_9allocatorIcEEEENS0_5tupleIJN3ctu8TimeTypeENS0_6chrono8durationIxNS0_5ratioILl1ELl1000000EEEEEEEE11qos_class_tN8dispatch5queueENSH_5blockIU13block_pointerFvvEEE
+__ZN16MockTimerService22createOneShotTimerImplENSt3__112basic_stringIcNS0_11char_traitsIcEENS0_9allocatorIcEEEENS0_5tupleIJN3ctu8TimeTypeENS0_6chrono8durationIxNS0_5ratioILl1ELl1000000EEEEEEEE11qos_class_tNS0_8functionIFvvEEE
+__ZN16MockTimerService23createPeriodicTimerImplENSt3__112basic_stringIcNS0_11char_traitsIcEENS0_9allocatorIcEEEENS0_5tupleIJN3ctu8TimeTypeENS0_6chrono8durationIxNS0_5ratioILl1ELl1000000EEEEEEEE11qos_class_tN8dispatch5queueENSH_5blockIU13block_pointerFvvEEE
+__ZN16MockTimerService23createPeriodicTimerImplENSt3__112basic_stringIcNS0_11char_traitsIcEENS0_9allocatorIcEEEENS0_5tupleIJN3ctu8TimeTypeENS0_6chrono8durationIxNS0_5ratioILl1ELl1000000EEEEEEEE11qos_class_tNS0_8functionIFvvEEE
+__ZN16MockTimerService3nowEv
+__ZN16MockTimerService6createENSt3__110shared_ptrIN3ctu9LogServerEEE
+__ZN16MockTimerService9init_syncEv
+__ZN16MockTimerServiceC1ENSt3__110shared_ptrIN3ctu9LogServerEEE
+__ZN16MockTimerServiceC2ENSt3__110shared_ptrIN3ctu9LogServerEEE
+__ZN16MockTimerServiceD0Ev
+__ZN16MockTimerServiceD1Ev
+__ZN16MockTimerServiceD2Ev
 __ZN3ctu10LogMessageC1ENS_9TimeStampENS_8LogLevelENSt3__112basic_stringIcNS3_11char_traitsIcEENS3_9allocatorIcEEEEOS9_ONS3_6vectorIS9_NS7_IS9_EEEE
 __ZN3ctu10LogMessageC2ENS_9TimeStampENS_8LogLevelENSt3__112basic_stringIcNS3_11char_traitsIcEENS3_9allocatorIcEEEEOS9_ONS3_6vectorIS9_NS7_IS9_EEEE
 __ZN3ctu10LogMessageD0Ev
@@ -664,6 +568,11 @@
 __ZN3ctu25XpcRestResourceConnectionD0Ev
 __ZN3ctu25XpcRestResourceConnectionD1Ev
 __ZN3ctu25XpcRestResourceConnectionD2Ev
+__ZN3ctu26EmptyMockCallArgsExceptionC1EPKc
+__ZN3ctu26EmptyMockCallArgsExceptionC2EPKc
+__ZN3ctu26EmptyMockCallArgsExceptionD0Ev
+__ZN3ctu26EmptyMockCallArgsExceptionD1Ev
+__ZN3ctu26EmptyMockCallArgsExceptionD2Ev
 __ZN3ctu27IllegalTimerParamsExceptionC1EPKc
 __ZN3ctu27IllegalTimerParamsExceptionC2EPKc
 __ZN3ctu27IllegalTimerParamsExceptionD0Ev
@@ -927,6 +836,28 @@
 __ZN3ctu5TimerD0Ev
 __ZN3ctu5TimerD1Ev
 __ZN3ctu5TimerD2Ev
+__ZN3ctu5power7manager13_powerChangedEPjjjPv
+__ZN3ctu5power7manager14_runLoopThreadEPv
+__ZN3ctu5power7manager14listenerHandleC1ERKNS1_10parametersERKN8dispatch5blockIU13block_pointerFvvEEE
+__ZN3ctu5power7manager14listenerHandleC2ERKNS1_10parametersERKN8dispatch5blockIU13block_pointerFvvEEE
+__ZN3ctu5power7manager14listenerHandleD1Ev
+__ZN3ctu5power7manager14listenerHandleD2Ev
+__ZN3ctu5power7manager14listenerHandleclERKjRKbRKN8dispatch5groupENSt3__110shared_ptrINSB_6atomicIbEEEE
+__ZN3ctu5power7manager16registerListenerENS1_10parametersE
+__ZN3ctu5power7manager20simulateNotificationEjb
+__ZN3ctu5power7manager22killRunLoopThread_syncEv
+__ZN3ctu5power7manager23addPowerSourceToRunLoopEP11__CFRunLoop
+__ZN3ctu5power7manager23handlePowerChanged_syncEjb
+__ZN3ctu5power7manager23spawnRunLoopThread_syncEv
+__ZN3ctu5power7manager24registerPowerSource_syncEv
+__ZN3ctu5power7manager26deregisterPowerSource_syncEv
+__ZN3ctu5power7manager28removePowerSourceFromRunLoopEP11__CFRunLoop
+__ZN3ctu5power7manager3getEv
+__ZN3ctu5power7manager8asStringEj
+__ZN3ctu5power7managerC1Ev
+__ZN3ctu5power7managerC2Ev
+__ZN3ctu5power7managerD1Ev
+__ZN3ctu5power7managerD2Ev
 __ZN3ctu6Logger18getTrackedLogLevelEv
 __ZN3ctu6Logger19updateTrackedConfigENS_8LogLevelE
 __ZN3ctu6Logger20getTrackedLoggerNameEv
@@ -951,7 +882,6 @@
 __ZN3ctu6binaryEy
 __ZN3ctu6hex_spEPKvm
 __ZN3ctu6hex_spERKNSt3__16vectorIhNS0_9allocatorIhEEEE
-__ZN3ctu6serial9configureEijjjb
 __ZN3ctu6to_rleEPKvm
 __ZN3ctu6to_rleERNSt3__112basic_stringIcNS0_11char_traitsIcEENS0_9allocatorIcEEEE
 __ZN3ctu7Gestalt6createEv
@@ -1097,6 +1027,9 @@
 __ZN3xpc19dyn_cast_or_defaultERKNS_6objectEx
 __ZN3xpc19dyn_cast_or_defaultERKNS_6objectEy
 __ZN3xpc6bridgeERKNS_6objectE
+__ZNK16MockTimerService11cancelTimerENSt3__110shared_ptrIvEE
+__ZNK16MockTimerService18pendingTimersCountEv
+__ZNK16MockTimerService5flushEv
 __ZNK3ctu10LoggerBaseINS_14DummyLogServerEE7enabledENS_8LogLevelE
 __ZNK3ctu10LoggerBaseINSt3__110shared_ptrINS_9LogServerEEEE12buildMessageENS_8LogLevelEONS_16LogMessageBufferE
 __ZNK3ctu10LoggerBaseINSt3__110shared_ptrINS_9LogServerEEEE7enabledENS_8LogLevelE
@@ -1295,6 +1228,7 @@
 __ZNK3ctu9XpcLogger8forceLogENS_8LogLevelEONS_16LogMessageBufferE
 __ZNK3ctu9XpcServer16getListener_syncEv
 __ZNK3xpc6object9to_stringEv
+__ZTI16MockTimerService
 __ZTIN3ctu10LogMessageE
 __ZTIN3ctu11concurrency7MonitorE
 __ZTIN3ctu12RestListenerE
@@ -1324,6 +1258,7 @@
 __ZTIN3ctu23MemoryBufferedLogWriterE
 __ZTIN3ctu24RestListenerDelegateBaseE
 __ZTIN3ctu25XpcRestResourceConnectionE
+__ZTIN3ctu26EmptyMockCallArgsExceptionE
 __ZTIN3ctu27IllegalTimerParamsExceptionE
 __ZTIN3ctu2cf11map_adapterE
 __ZTIN3ctu2cf12dict_adapterE
@@ -1348,6 +1283,7 @@
 __ZTIN3ctu9XpcClientE
 __ZTIN3ctu9XpcLoggerE
 __ZTIN3ctu9XpcServerE
+__ZTS16MockTimerService
 __ZTSN3ctu10LogMessageE
 __ZTSN3ctu11concurrency7MonitorE
 __ZTSN3ctu12RestListenerE
@@ -1377,6 +1313,7 @@
 __ZTSN3ctu23MemoryBufferedLogWriterE
 __ZTSN3ctu24RestListenerDelegateBaseE
 __ZTSN3ctu25XpcRestResourceConnectionE
+__ZTSN3ctu26EmptyMockCallArgsExceptionE
 __ZTSN3ctu27IllegalTimerParamsExceptionE
 __ZTSN3ctu2cf11map_adapterE
 __ZTSN3ctu2cf12dict_adapterE
@@ -1401,6 +1338,7 @@
 __ZTSN3ctu9XpcClientE
 __ZTSN3ctu9XpcLoggerE
 __ZTSN3ctu9XpcServerE
+__ZTV16MockTimerService
 __ZTVN3ctu10LogMessageE
 __ZTVN3ctu11concurrency7MonitorE
 __ZTVN3ctu12RestListenerE
@@ -1430,6 +1368,7 @@
 __ZTVN3ctu23MemoryBufferedLogWriterE
 __ZTVN3ctu24RestListenerDelegateBaseE
 __ZTVN3ctu25XpcRestResourceConnectionE
+__ZTVN3ctu26EmptyMockCallArgsExceptionE
 __ZTVN3ctu27IllegalTimerParamsExceptionE
 __ZTVN3ctu2cf11map_adapterE
 __ZTVN3ctu2cf12dict_adapterE
@@ -1470,15 +1409,10 @@
 __ZThn64_N3ctu6Logger18getTrackedLogLevelEv
 __ZThn64_N3ctu6Logger19updateTrackedConfigENS_8LogLevelE
 __ZThn64_N3ctu6Logger20getTrackedLoggerNameEv
+__ZThn8_N16MockTimerServiceD0Ev
+__ZThn8_N16MockTimerServiceD1Ev
 __ZThn8_N3ctu20DispatchTimerServiceD0Ev
 __ZThn8_N3ctu20DispatchTimerServiceD1Ev
 ___TUAssertGetReason
 ___TUAssertTrigger
 _kTelephonyUtilTransportConfigMaxPacketSize
-_mav_buffer_queue_create
-_mav_buffer_queue_dequeue_internal
-_mav_buffer_queue_empty_internal
-_mav_buffer_queue_enqueue_internal
-_mav_buffer_queue_free
-_mav_buffer_queue_front_internal
-_mav_buffer_queue_get_size_internal
Only in ios14.2-symbols/usr/lib: libUSBTransport.dylib.nm
Only in macosx11.2.3-symbols/usr/lib: libUniversalAccess.dylib.nm
Only in ios14.2-symbols/usr/lib: libWAPI.dylib.nm
Only in ios14.2-symbols/usr/lib: libWirelessAudioIPC.dylib.nm
Only in macosx11.2.3-symbols/usr/lib: libXSEvent.dylib.nm
Only in macosx11.2.3-symbols/usr/lib: libXplugin.1.dylib.nm
Only in ios14.2-symbols/usr/lib: libacmobileshim.dylib.nm
Only in ios14.2-symbols/usr/lib: libafc.dylib.nm
